
iob_soc_firmware.elf:     file format elf32-littleriscv


Disassembly of section .init:

00000000 <.init>:
   0:	00040137          	lui	sp,0x40
   4:	00010113          	mv	sp,sp
   8:	288050ef          	jal	ra,5290 <main>
   c:	00100073          	ebreak

Disassembly of section .text:

00000010 <_out_buffer>:
      10:	00d67663          	bgeu	a2,a3,1c <_out_buffer+0xc>
      14:	00c585b3          	add	a1,a1,a2
      18:	00a58023          	sb	a0,0(a1)
      1c:	00008067          	ret

00000020 <_out_null>:
      20:	00008067          	ret

00000024 <_out_rev>:
      24:	fd010113          	addi	sp,sp,-48 # 3ffd0 <_heap_start+0x3a08c>
      28:	02912223          	sw	s1,36(sp)
      2c:	03212023          	sw	s2,32(sp)
      30:	01312e23          	sw	s3,28(sp)
      34:	01412c23          	sw	s4,24(sp)
      38:	01512a23          	sw	s5,20(sp)
      3c:	01612823          	sw	s6,16(sp)
      40:	01712623          	sw	s7,12(sp)
      44:	01812423          	sw	s8,8(sp)
      48:	00078493          	mv	s1,a5
      4c:	02112623          	sw	ra,44(sp)
      50:	02812423          	sw	s0,40(sp)
      54:	01912223          	sw	s9,4(sp)
      58:	0038f793          	andi	a5,a7,3
      5c:	00050a13          	mv	s4,a0
      60:	00058a93          	mv	s5,a1
      64:	00060913          	mv	s2,a2
      68:	00068b13          	mv	s6,a3
      6c:	00070b93          	mv	s7,a4
      70:	00080993          	mv	s3,a6
      74:	00088c13          	mv	s8,a7
      78:	08078463          	beqz	a5,100 <_out_rev+0xdc>
      7c:	00060413          	mv	s0,a2
      80:	00848433          	add	s0,s1,s0
      84:	00040513          	mv	a0,s0
      88:	40940633          	sub	a2,s0,s1
      8c:	08049063          	bnez	s1,10c <_out_rev+0xe8>
      90:	002c7c13          	andi	s8,s8,2
      94:	41240433          	sub	s0,s0,s2
      98:	0a0c1463          	bnez	s8,140 <_out_rev+0x11c>
      9c:	02c12083          	lw	ra,44(sp)
      a0:	02812403          	lw	s0,40(sp)
      a4:	02412483          	lw	s1,36(sp)
      a8:	02012903          	lw	s2,32(sp)
      ac:	01c12983          	lw	s3,28(sp)
      b0:	01812a03          	lw	s4,24(sp)
      b4:	01412a83          	lw	s5,20(sp)
      b8:	01012b03          	lw	s6,16(sp)
      bc:	00c12b83          	lw	s7,12(sp)
      c0:	00812c03          	lw	s8,8(sp)
      c4:	00412c83          	lw	s9,4(sp)
      c8:	03010113          	addi	sp,sp,48
      cc:	00008067          	ret
      d0:	000b0693          	mv	a3,s6
      d4:	000a8593          	mv	a1,s5
      d8:	02000513          	li	a0,32
      dc:	000a00e7          	jalr	s4
      e0:	00140413          	addi	s0,s0,1
      e4:	008c8633          	add	a2,s9,s0
      e8:	ff3464e3          	bltu	s0,s3,d0 <_out_rev+0xac>
      ec:	00000413          	li	s0,0
      f0:	0099e463          	bltu	s3,s1,f8 <_out_rev+0xd4>
      f4:	40998433          	sub	s0,s3,s1
      f8:	01240433          	add	s0,s0,s2
      fc:	f85ff06f          	j	80 <_out_rev+0x5c>
     100:	00048413          	mv	s0,s1
     104:	40960cb3          	sub	s9,a2,s1
     108:	fddff06f          	j	e4 <_out_rev+0xc0>
     10c:	fff48493          	addi	s1,s1,-1
     110:	009b87b3          	add	a5,s7,s1
     114:	0007c503          	lbu	a0,0(a5)
     118:	000b0693          	mv	a3,s6
     11c:	000a8593          	mv	a1,s5
     120:	000a00e7          	jalr	s4
     124:	f61ff06f          	j	84 <_out_rev+0x60>
     128:	00050613          	mv	a2,a0
     12c:	000b0693          	mv	a3,s6
     130:	000a8593          	mv	a1,s5
     134:	02000513          	li	a0,32
     138:	000a00e7          	jalr	s4
     13c:	00140413          	addi	s0,s0,1
     140:	00890533          	add	a0,s2,s0
     144:	ff3462e3          	bltu	s0,s3,128 <_out_rev+0x104>
     148:	f55ff06f          	j	9c <_out_rev+0x78>

0000014c <_ntoa_format>:
     14c:	00088313          	mv	t1,a7
     150:	00812883          	lw	a7,8(sp)
     154:	00080e13          	mv	t3,a6
     158:	00012e83          	lw	t4,0(sp)
     15c:	0028ff13          	andi	t5,a7,2
     160:	00412803          	lw	a6,4(sp)
     164:	040f1a63          	bnez	t5,1b8 <_ntoa_format+0x6c>
     168:	0018ff13          	andi	t5,a7,1
     16c:	00080c63          	beqz	a6,184 <_ntoa_format+0x38>
     170:	000f0a63          	beqz	t5,184 <_ntoa_format+0x38>
     174:	000e1663          	bnez	t3,180 <_ntoa_format+0x34>
     178:	00c8ff93          	andi	t6,a7,12
     17c:	000f8463          	beqz	t6,184 <_ntoa_format+0x38>
     180:	fff80813          	addi	a6,a6,-1
     184:	02000f93          	li	t6,32
     188:	03000293          	li	t0,48
     18c:	0100006f          	j	19c <_ntoa_format+0x50>
     190:	00f703b3          	add	t2,a4,a5
     194:	00538023          	sb	t0,0(t2)
     198:	00178793          	addi	a5,a5,1
     19c:	01d7f463          	bgeu	a5,t4,1a4 <_ntoa_format+0x58>
     1a0:	fff798e3          	bne	a5,t6,190 <_ntoa_format+0x44>
     1a4:	01f00f93          	li	t6,31
     1a8:	03000293          	li	t0,48
     1ac:	000f0663          	beqz	t5,1b8 <_ntoa_format+0x6c>
     1b0:	0107f463          	bgeu	a5,a6,1b8 <_ntoa_format+0x6c>
     1b4:	04fffa63          	bgeu	t6,a5,208 <_ntoa_format+0xbc>
     1b8:	0108ff13          	andi	t5,a7,16
     1bc:	0a0f0063          	beqz	t5,25c <_ntoa_format+0x110>
     1c0:	4008ff13          	andi	t5,a7,1024
     1c4:	040f1c63          	bnez	t5,21c <_ntoa_format+0xd0>
     1c8:	04078a63          	beqz	a5,21c <_ntoa_format+0xd0>
     1cc:	01d78463          	beq	a5,t4,1d4 <_ntoa_format+0x88>
     1d0:	05079663          	bne	a5,a6,21c <_ntoa_format+0xd0>
     1d4:	fff78e93          	addi	t4,a5,-1
     1d8:	040e8063          	beqz	t4,218 <_ntoa_format+0xcc>
     1dc:	01000f13          	li	t5,16
     1e0:	ffe78793          	addi	a5,a5,-2
     1e4:	05e30063          	beq	t1,t5,224 <_ntoa_format+0xd8>
     1e8:	000e8793          	mv	a5,t4
     1ec:	00200e93          	li	t4,2
     1f0:	05d31a63          	bne	t1,t4,244 <_ntoa_format+0xf8>
     1f4:	01f00313          	li	t1,31
     1f8:	08f36063          	bltu	t1,a5,278 <_ntoa_format+0x12c>
     1fc:	00f70333          	add	t1,a4,a5
     200:	06200e93          	li	t4,98
     204:	0380006f          	j	23c <_ntoa_format+0xf0>
     208:	00f703b3          	add	t2,a4,a5
     20c:	00538023          	sb	t0,0(t2)
     210:	00178793          	addi	a5,a5,1
     214:	f99ff06f          	j	1ac <_ntoa_format+0x60>
     218:	00000793          	li	a5,0
     21c:	01000e93          	li	t4,16
     220:	fdd316e3          	bne	t1,t4,1ec <_ntoa_format+0xa0>
     224:	0208f313          	andi	t1,a7,32
     228:	04031a63          	bnez	t1,27c <_ntoa_format+0x130>
     22c:	01f00313          	li	t1,31
     230:	04f36463          	bltu	t1,a5,278 <_ntoa_format+0x12c>
     234:	00f70333          	add	t1,a4,a5
     238:	07800e93          	li	t4,120
     23c:	01d30023          	sb	t4,0(t1)
     240:	00178793          	addi	a5,a5,1
     244:	01f00313          	li	t1,31
     248:	02f36863          	bltu	t1,a5,278 <_ntoa_format+0x12c>
     24c:	00f70333          	add	t1,a4,a5
     250:	03000e93          	li	t4,48
     254:	01d30023          	sb	t4,0(t1)
     258:	00178793          	addi	a5,a5,1
     25c:	01f00313          	li	t1,31
     260:	00f36c63          	bltu	t1,a5,278 <_ntoa_format+0x12c>
     264:	020e0663          	beqz	t3,290 <_ntoa_format+0x144>
     268:	00f70333          	add	t1,a4,a5
     26c:	02d00e13          	li	t3,45
     270:	01c30023          	sb	t3,0(t1)
     274:	00178793          	addi	a5,a5,1
     278:	dadff06f          	j	24 <_out_rev>
     27c:	01f00313          	li	t1,31
     280:	fef36ce3          	bltu	t1,a5,278 <_ntoa_format+0x12c>
     284:	00f70333          	add	t1,a4,a5
     288:	05800e93          	li	t4,88
     28c:	fb1ff06f          	j	23c <_ntoa_format+0xf0>
     290:	0048f313          	andi	t1,a7,4
     294:	00030863          	beqz	t1,2a4 <_ntoa_format+0x158>
     298:	00f70333          	add	t1,a4,a5
     29c:	02b00e13          	li	t3,43
     2a0:	fd1ff06f          	j	270 <_ntoa_format+0x124>
     2a4:	0088f313          	andi	t1,a7,8
     2a8:	fc0308e3          	beqz	t1,278 <_ntoa_format+0x12c>
     2ac:	00f70333          	add	t1,a4,a5
     2b0:	02000e13          	li	t3,32
     2b4:	fbdff06f          	j	270 <_ntoa_format+0x124>

000002b8 <_ntoa_long>:
     2b8:	f8010113          	addi	sp,sp,-128
     2bc:	06812c23          	sw	s0,120(sp)
     2c0:	07412423          	sw	s4,104(sp)
     2c4:	07512223          	sw	s5,100(sp)
     2c8:	07612023          	sw	s6,96(sp)
     2cc:	05912a23          	sw	s9,84(sp)
     2d0:	05a12823          	sw	s10,80(sp)
     2d4:	05b12623          	sw	s11,76(sp)
     2d8:	06112e23          	sw	ra,124(sp)
     2dc:	06912a23          	sw	s1,116(sp)
     2e0:	07212823          	sw	s2,112(sp)
     2e4:	07312623          	sw	s3,108(sp)
     2e8:	05712e23          	sw	s7,92(sp)
     2ec:	05812c23          	sw	s8,88(sp)
     2f0:	00a12c23          	sw	a0,24(sp)
     2f4:	00b12e23          	sw	a1,28(sp)
     2f8:	08412d83          	lw	s11,132(sp)
     2fc:	00060a13          	mv	s4,a2
     300:	00068c93          	mv	s9,a3
     304:	00070413          	mv	s0,a4
     308:	00078a93          	mv	s5,a5
     30c:	00080d13          	mv	s10,a6
     310:	00088b13          	mv	s6,a7
     314:	00071463          	bnez	a4,31c <_ntoa_long+0x64>
     318:	fefdfd93          	andi	s11,s11,-17
     31c:	400df793          	andi	a5,s11,1024
     320:	00078463          	beqz	a5,328 <_ntoa_long+0x70>
     324:	06040463          	beqz	s0,38c <_ntoa_long+0xd4>
     328:	020df793          	andi	a5,s11,32
     32c:	06100493          	li	s1,97
     330:	00078463          	beqz	a5,338 <_ntoa_long+0x80>
     334:	04100493          	li	s1,65
     338:	00040993          	mv	s3,s0
     33c:	02010913          	addi	s2,sp,32
     340:	00000413          	li	s0,0
     344:	00900c13          	li	s8,9
     348:	ff648493          	addi	s1,s1,-10
     34c:	02000b93          	li	s7,32
     350:	000d0593          	mv	a1,s10
     354:	00098513          	mv	a0,s3
     358:	205040ef          	jal	ra,4d5c <__umodsi3>
     35c:	0ff57713          	zext.b	a4,a0
     360:	0aac6263          	bltu	s8,a0,404 <_ntoa_long+0x14c>
     364:	03070713          	addi	a4,a4,48
     368:	0ff77713          	zext.b	a4,a4
     36c:	000d0593          	mv	a1,s10
     370:	00098513          	mv	a0,s3
     374:	00140413          	addi	s0,s0,1
     378:	00e90023          	sb	a4,0(s2)
     37c:	199040ef          	jal	ra,4d14 <__udivsi3>
     380:	01a9e663          	bltu	s3,s10,38c <_ntoa_long+0xd4>
     384:	00190913          	addi	s2,s2,1
     388:	07741a63          	bne	s0,s7,3fc <_ntoa_long+0x144>
     38c:	08012783          	lw	a5,128(sp)
     390:	01c12583          	lw	a1,28(sp)
     394:	01812503          	lw	a0,24(sp)
     398:	01b12423          	sw	s11,8(sp)
     39c:	00f12223          	sw	a5,4(sp)
     3a0:	01612023          	sw	s6,0(sp)
     3a4:	000d0893          	mv	a7,s10
     3a8:	000a8813          	mv	a6,s5
     3ac:	00040793          	mv	a5,s0
     3b0:	02010713          	addi	a4,sp,32
     3b4:	000c8693          	mv	a3,s9
     3b8:	000a0613          	mv	a2,s4
     3bc:	d91ff0ef          	jal	ra,14c <_ntoa_format>
     3c0:	07c12083          	lw	ra,124(sp)
     3c4:	07812403          	lw	s0,120(sp)
     3c8:	07412483          	lw	s1,116(sp)
     3cc:	07012903          	lw	s2,112(sp)
     3d0:	06c12983          	lw	s3,108(sp)
     3d4:	06812a03          	lw	s4,104(sp)
     3d8:	06412a83          	lw	s5,100(sp)
     3dc:	06012b03          	lw	s6,96(sp)
     3e0:	05c12b83          	lw	s7,92(sp)
     3e4:	05812c03          	lw	s8,88(sp)
     3e8:	05412c83          	lw	s9,84(sp)
     3ec:	05012d03          	lw	s10,80(sp)
     3f0:	04c12d83          	lw	s11,76(sp)
     3f4:	08010113          	addi	sp,sp,128
     3f8:	00008067          	ret
     3fc:	00050993          	mv	s3,a0
     400:	f51ff06f          	j	350 <_ntoa_long+0x98>
     404:	00970733          	add	a4,a4,s1
     408:	f61ff06f          	j	368 <_ntoa_long+0xb0>

0000040c <_ntoa_long_long>:
     40c:	f7010113          	addi	sp,sp,-144
     410:	06912a23          	sw	s1,116(sp)
     414:	07312623          	sw	s3,108(sp)
     418:	07412423          	sw	s4,104(sp)
     41c:	05712e23          	sw	s7,92(sp)
     420:	05812c23          	sw	s8,88(sp)
     424:	05912a23          	sw	s9,84(sp)
     428:	05a12823          	sw	s10,80(sp)
     42c:	00060993          	mv	s3,a2
     430:	06112e23          	sw	ra,124(sp)
     434:	06812c23          	sw	s0,120(sp)
     438:	07212823          	sw	s2,112(sp)
     43c:	07512223          	sw	s5,100(sp)
     440:	07612023          	sw	s6,96(sp)
     444:	05b12623          	sw	s11,76(sp)
     448:	00a12a23          	sw	a0,20(sp)
     44c:	00b12c23          	sw	a1,24(sp)
     450:	09112623          	sw	a7,140(sp)
     454:	00f76633          	or	a2,a4,a5
     458:	00068a13          	mv	s4,a3
     45c:	09c12483          	lw	s1,156(sp)
     460:	09012683          	lw	a3,144(sp)
     464:	00070c93          	mv	s9,a4
     468:	00078c13          	mv	s8,a5
     46c:	00080b93          	mv	s7,a6
     470:	00088d13          	mv	s10,a7
     474:	00061463          	bnez	a2,47c <_ntoa_long_long+0x70>
     478:	fef4f493          	andi	s1,s1,-17
     47c:	4004f713          	andi	a4,s1,1024
     480:	00070663          	beqz	a4,48c <_ntoa_long_long+0x80>
     484:	00000d93          	li	s11,0
     488:	08060263          	beqz	a2,50c <_ntoa_long_long+0x100>
     48c:	0204f713          	andi	a4,s1,32
     490:	06100413          	li	s0,97
     494:	00070463          	beqz	a4,49c <_ntoa_long_long+0x90>
     498:	04100413          	li	s0,65
     49c:	02010913          	addi	s2,sp,32
     4a0:	00000d93          	li	s11,0
     4a4:	00900b13          	li	s6,9
     4a8:	ff640413          	addi	s0,s0,-10
     4ac:	02000a93          	li	s5,32
     4b0:	000d0613          	mv	a2,s10
     4b4:	000c8513          	mv	a0,s9
     4b8:	000c0593          	mv	a1,s8
     4bc:	00d12e23          	sw	a3,28(sp)
     4c0:	068020ef          	jal	ra,2528 <__umoddi3>
     4c4:	0ff57313          	zext.b	t1,a0
     4c8:	01c12683          	lw	a3,28(sp)
     4cc:	0c6b6063          	bltu	s6,t1,58c <_ntoa_long_long+0x180>
     4d0:	03030313          	addi	t1,t1,48
     4d4:	0ff37313          	zext.b	t1,t1
     4d8:	000d0613          	mv	a2,s10
     4dc:	000c8513          	mv	a0,s9
     4e0:	000c0593          	mv	a1,s8
     4e4:	00d12e23          	sw	a3,28(sp)
     4e8:	00690023          	sb	t1,0(s2)
     4ec:	27d010ef          	jal	ra,1f68 <__udivdi3>
     4f0:	01c12683          	lw	a3,28(sp)
     4f4:	001d8d93          	addi	s11,s11,1
     4f8:	00dc6a63          	bltu	s8,a3,50c <_ntoa_long_long+0x100>
     4fc:	01869463          	bne	a3,s8,504 <_ntoa_long_long+0xf8>
     500:	01ace663          	bltu	s9,s10,50c <_ntoa_long_long+0x100>
     504:	00190913          	addi	s2,s2,1
     508:	075d9c63          	bne	s11,s5,580 <_ntoa_long_long+0x174>
     50c:	09812783          	lw	a5,152(sp)
     510:	01812583          	lw	a1,24(sp)
     514:	01412503          	lw	a0,20(sp)
     518:	00f12223          	sw	a5,4(sp)
     51c:	09412783          	lw	a5,148(sp)
     520:	00912423          	sw	s1,8(sp)
     524:	000d0893          	mv	a7,s10
     528:	00f12023          	sw	a5,0(sp)
     52c:	000b8813          	mv	a6,s7
     530:	000d8793          	mv	a5,s11
     534:	02010713          	addi	a4,sp,32
     538:	000a0693          	mv	a3,s4
     53c:	00098613          	mv	a2,s3
     540:	c0dff0ef          	jal	ra,14c <_ntoa_format>
     544:	07c12083          	lw	ra,124(sp)
     548:	07812403          	lw	s0,120(sp)
     54c:	07412483          	lw	s1,116(sp)
     550:	07012903          	lw	s2,112(sp)
     554:	06c12983          	lw	s3,108(sp)
     558:	06812a03          	lw	s4,104(sp)
     55c:	06412a83          	lw	s5,100(sp)
     560:	06012b03          	lw	s6,96(sp)
     564:	05c12b83          	lw	s7,92(sp)
     568:	05812c03          	lw	s8,88(sp)
     56c:	05412c83          	lw	s9,84(sp)
     570:	05012d03          	lw	s10,80(sp)
     574:	04c12d83          	lw	s11,76(sp)
     578:	09010113          	addi	sp,sp,144
     57c:	00008067          	ret
     580:	00050c93          	mv	s9,a0
     584:	00058c13          	mv	s8,a1
     588:	f29ff06f          	j	4b0 <_ntoa_long_long+0xa4>
     58c:	00830333          	add	t1,t1,s0
     590:	f45ff06f          	j	4d4 <_ntoa_long_long+0xc8>

00000594 <_etoa>:
     594:	f9010113          	addi	sp,sp,-112
     598:	05612823          	sw	s6,80(sp)
     59c:	05712623          	sw	s7,76(sp)
     5a0:	05812423          	sw	s8,72(sp)
     5a4:	05a12023          	sw	s10,64(sp)
     5a8:	00050b13          	mv	s6,a0
     5ac:	00058b93          	mv	s7,a1
     5b0:	00060d13          	mv	s10,a2
     5b4:	00068c13          	mv	s8,a3
     5b8:	00070613          	mv	a2,a4
     5bc:	00078693          	mv	a3,a5
     5c0:	00070513          	mv	a0,a4
     5c4:	00078593          	mv	a1,a5
     5c8:	06912223          	sw	s1,100(sp)
     5cc:	05312e23          	sw	s3,92(sp)
     5d0:	05412c23          	sw	s4,88(sp)
     5d4:	05512a23          	sw	s5,84(sp)
     5d8:	05912223          	sw	s9,68(sp)
     5dc:	06112623          	sw	ra,108(sp)
     5e0:	06812423          	sw	s0,104(sp)
     5e4:	07212023          	sw	s2,96(sp)
     5e8:	03b12e23          	sw	s11,60(sp)
     5ec:	07012a83          	lw	s5,112(sp)
     5f0:	00070493          	mv	s1,a4
     5f4:	00078a13          	mv	s4,a5
     5f8:	00080993          	mv	s3,a6
     5fc:	00088c93          	mv	s9,a7
     600:	3b4030ef          	jal	ra,39b4 <__eqdf2>
     604:	02051e63          	bnez	a0,640 <_etoa+0xac>
     608:	000057b7          	lui	a5,0x5
     60c:	4507a603          	lw	a2,1104(a5) # 5450 <send_string+0x48>
     610:	4547a683          	lw	a3,1108(a5)
     614:	00048513          	mv	a0,s1
     618:	000a0593          	mv	a1,s4
     61c:	424030ef          	jal	ra,3a40 <__gedf2>
     620:	02a04063          	bgtz	a0,640 <_etoa+0xac>
     624:	000057b7          	lui	a5,0x5
     628:	4587a603          	lw	a2,1112(a5) # 5458 <send_string+0x50>
     62c:	45c7a683          	lw	a3,1116(a5)
     630:	00048513          	mv	a0,s1
     634:	000a0593          	mv	a1,s4
     638:	4ec030ef          	jal	ra,3b24 <__ledf2>
     63c:	06055263          	bgez	a0,6a0 <_etoa+0x10c>
     640:	06812403          	lw	s0,104(sp)
     644:	07512823          	sw	s5,112(sp)
     648:	06c12083          	lw	ra,108(sp)
     64c:	06012903          	lw	s2,96(sp)
     650:	05412a83          	lw	s5,84(sp)
     654:	03c12d83          	lw	s11,60(sp)
     658:	000c8893          	mv	a7,s9
     65c:	00098813          	mv	a6,s3
     660:	04412c83          	lw	s9,68(sp)
     664:	05c12983          	lw	s3,92(sp)
     668:	00048713          	mv	a4,s1
     66c:	000a0793          	mv	a5,s4
     670:	06412483          	lw	s1,100(sp)
     674:	05812a03          	lw	s4,88(sp)
     678:	000c0693          	mv	a3,s8
     67c:	000d0613          	mv	a2,s10
     680:	04812c03          	lw	s8,72(sp)
     684:	04012d03          	lw	s10,64(sp)
     688:	000b8593          	mv	a1,s7
     68c:	000b0513          	mv	a0,s6
     690:	04c12b83          	lw	s7,76(sp)
     694:	05012b03          	lw	s6,80(sp)
     698:	07010113          	addi	sp,sp,112
     69c:	4e40006f          	j	b80 <_ftoa>
     6a0:	00000613          	li	a2,0
     6a4:	00000693          	li	a3,0
     6a8:	00048513          	mv	a0,s1
     6ac:	000a0593          	mv	a1,s4
     6b0:	474030ef          	jal	ra,3b24 <__ledf2>
     6b4:	00912c23          	sw	s1,24(sp)
     6b8:	000a0413          	mv	s0,s4
     6bc:	00055663          	bgez	a0,6c8 <_etoa+0x134>
     6c0:	80000437          	lui	s0,0x80000
     6c4:	01444433          	xor	s0,s0,s4
     6c8:	400af793          	andi	a5,s5,1024
     6cc:	00f12823          	sw	a5,16(sp)
     6d0:	00079463          	bnez	a5,6d8 <_etoa+0x144>
     6d4:	00600993          	li	s3,6
     6d8:	01445513          	srli	a0,s0,0x14
     6dc:	7ff57513          	andi	a0,a0,2047
     6e0:	c0150513          	addi	a0,a0,-1023
     6e4:	4dc040ef          	jal	ra,4bc0 <__floatsidf>
     6e8:	000057b7          	lui	a5,0x5
     6ec:	4607a603          	lw	a2,1120(a5) # 5460 <send_string+0x58>
     6f0:	4647a683          	lw	a3,1124(a5)
     6f4:	514030ef          	jal	ra,3c08 <__muldf3>
     6f8:	000057b7          	lui	a5,0x5
     6fc:	4687a603          	lw	a2,1128(a5) # 5468 <send_string+0x60>
     700:	46c7a683          	lw	a3,1132(a5)
     704:	2f4020ef          	jal	ra,29f8 <__adddf3>
     708:	000057b7          	lui	a5,0x5
     70c:	00c41713          	slli	a4,s0,0xc
     710:	00c75713          	srli	a4,a4,0xc
     714:	4707a603          	lw	a2,1136(a5) # 5470 <send_string+0x68>
     718:	4747a683          	lw	a3,1140(a5)
     71c:	3ff007b7          	lui	a5,0x3ff00
     720:	00e7e7b3          	or	a5,a5,a4
     724:	00050d93          	mv	s11,a0
     728:	00058913          	mv	s2,a1
     72c:	00048513          	mv	a0,s1
     730:	00078593          	mv	a1,a5
     734:	3a1030ef          	jal	ra,42d4 <__subdf3>
     738:	000057b7          	lui	a5,0x5
     73c:	4787a603          	lw	a2,1144(a5) # 5478 <send_string+0x70>
     740:	47c7a683          	lw	a3,1148(a5)
     744:	4c4030ef          	jal	ra,3c08 <__muldf3>
     748:	00050613          	mv	a2,a0
     74c:	00058693          	mv	a3,a1
     750:	000d8513          	mv	a0,s11
     754:	00090593          	mv	a1,s2
     758:	2a0020ef          	jal	ra,29f8 <__adddf3>
     75c:	368040ef          	jal	ra,4ac4 <__fixdfsi>
     760:	00050913          	mv	s2,a0
     764:	45c040ef          	jal	ra,4bc0 <__floatsidf>
     768:	00005737          	lui	a4,0x5
     76c:	48072603          	lw	a2,1152(a4) # 5480 <send_string+0x78>
     770:	48472683          	lw	a3,1156(a4)
     774:	00058d93          	mv	s11,a1
     778:	00a12823          	sw	a0,16(sp)
     77c:	48c030ef          	jal	ra,3c08 <__muldf3>
     780:	00005737          	lui	a4,0x5
     784:	48872603          	lw	a2,1160(a4) # 5488 <send_string+0x80>
     788:	48c72683          	lw	a3,1164(a4)
     78c:	26c020ef          	jal	ra,29f8 <__adddf3>
     790:	334040ef          	jal	ra,4ac4 <__fixdfsi>
     794:	01012783          	lw	a5,16(sp)
     798:	00005737          	lui	a4,0x5
     79c:	49072603          	lw	a2,1168(a4) # 5490 <send_string+0x88>
     7a0:	49472683          	lw	a3,1172(a4)
     7a4:	00a12e23          	sw	a0,28(sp)
     7a8:	000d8593          	mv	a1,s11
     7ac:	00078513          	mv	a0,a5
     7b0:	458030ef          	jal	ra,3c08 <__muldf3>
     7b4:	00a12823          	sw	a0,16(sp)
     7b8:	01c12503          	lw	a0,28(sp)
     7bc:	00058d93          	mv	s11,a1
     7c0:	400040ef          	jal	ra,4bc0 <__floatsidf>
     7c4:	00005737          	lui	a4,0x5
     7c8:	49872603          	lw	a2,1176(a4) # 5498 <send_string+0x90>
     7cc:	49c72683          	lw	a3,1180(a4)
     7d0:	438030ef          	jal	ra,3c08 <__muldf3>
     7d4:	01012783          	lw	a5,16(sp)
     7d8:	00050613          	mv	a2,a0
     7dc:	00058693          	mv	a3,a1
     7e0:	00078513          	mv	a0,a5
     7e4:	000d8593          	mv	a1,s11
     7e8:	2ed030ef          	jal	ra,42d4 <__subdf3>
     7ec:	00050613          	mv	a2,a0
     7f0:	00058693          	mv	a3,a1
     7f4:	02a12223          	sw	a0,36(sp)
     7f8:	02b12023          	sw	a1,32(sp)
     7fc:	40c030ef          	jal	ra,3c08 <__muldf3>
     800:	02412703          	lw	a4,36(sp)
     804:	02012783          	lw	a5,32(sp)
     808:	00050d93          	mv	s11,a0
     80c:	00070613          	mv	a2,a4
     810:	00078693          	mv	a3,a5
     814:	00070513          	mv	a0,a4
     818:	00b12823          	sw	a1,16(sp)
     81c:	00078593          	mv	a1,a5
     820:	02e12623          	sw	a4,44(sp)
     824:	02f12423          	sw	a5,40(sp)
     828:	1d0020ef          	jal	ra,29f8 <__adddf3>
     82c:	000056b7          	lui	a3,0x5
     830:	4a06a603          	lw	a2,1184(a3) # 54a0 <send_string+0x98>
     834:	02b12023          	sw	a1,32(sp)
     838:	4a46a683          	lw	a3,1188(a3)
     83c:	01012583          	lw	a1,16(sp)
     840:	02a12223          	sw	a0,36(sp)
     844:	000d8513          	mv	a0,s11
     848:	18d020ef          	jal	ra,31d4 <__divdf3>
     84c:	000058b7          	lui	a7,0x5
     850:	4a88a603          	lw	a2,1192(a7) # 54a8 <send_string+0xa0>
     854:	4ac8a683          	lw	a3,1196(a7)
     858:	1a0020ef          	jal	ra,29f8 <__adddf3>
     85c:	00058693          	mv	a3,a1
     860:	01012583          	lw	a1,16(sp)
     864:	00050613          	mv	a2,a0
     868:	000d8513          	mv	a0,s11
     86c:	169020ef          	jal	ra,31d4 <__divdf3>
     870:	000056b7          	lui	a3,0x5
     874:	4b06a603          	lw	a2,1200(a3) # 54b0 <send_string+0xa8>
     878:	4b46a683          	lw	a3,1204(a3)
     87c:	17c020ef          	jal	ra,29f8 <__adddf3>
     880:	00058693          	mv	a3,a1
     884:	01012583          	lw	a1,16(sp)
     888:	00050613          	mv	a2,a0
     88c:	000d8513          	mv	a0,s11
     890:	145020ef          	jal	ra,31d4 <__divdf3>
     894:	02812783          	lw	a5,40(sp)
     898:	02c12703          	lw	a4,44(sp)
     89c:	00058d93          	mv	s11,a1
     8a0:	00078693          	mv	a3,a5
     8a4:	000057b7          	lui	a5,0x5
     8a8:	4bc7a583          	lw	a1,1212(a5) # 54bc <send_string+0xb4>
     8ac:	00a12823          	sw	a0,16(sp)
     8b0:	4b87a503          	lw	a0,1208(a5)
     8b4:	00070613          	mv	a2,a4
     8b8:	21d030ef          	jal	ra,42d4 <__subdf3>
     8bc:	01012e03          	lw	t3,16(sp)
     8c0:	00050613          	mv	a2,a0
     8c4:	00058693          	mv	a3,a1
     8c8:	000e0513          	mv	a0,t3
     8cc:	000d8593          	mv	a1,s11
     8d0:	128020ef          	jal	ra,29f8 <__adddf3>
     8d4:	02412303          	lw	t1,36(sp)
     8d8:	02012803          	lw	a6,32(sp)
     8dc:	00050613          	mv	a2,a0
     8e0:	00058693          	mv	a3,a1
     8e4:	00030513          	mv	a0,t1
     8e8:	00080593          	mv	a1,a6
     8ec:	0e9020ef          	jal	ra,31d4 <__divdf3>
     8f0:	000057b7          	lui	a5,0x5
     8f4:	4c07a603          	lw	a2,1216(a5) # 54c0 <send_string+0xb8>
     8f8:	4c47a683          	lw	a3,1220(a5)
     8fc:	0fc020ef          	jal	ra,29f8 <__adddf3>
     900:	01c12783          	lw	a5,28(sp)
     904:	00000813          	li	a6,0
     908:	00080613          	mv	a2,a6
     90c:	3ff78793          	addi	a5,a5,1023
     910:	01479713          	slli	a4,a5,0x14
     914:	00070693          	mv	a3,a4
     918:	2f0030ef          	jal	ra,3c08 <__muldf3>
     91c:	00048613          	mv	a2,s1
     920:	00040693          	mv	a3,s0
     924:	00a12823          	sw	a0,16(sp)
     928:	00058d93          	mv	s11,a1
     92c:	114030ef          	jal	ra,3a40 <__gedf2>
     930:	01012803          	lw	a6,16(sp)
     934:	000058b7          	lui	a7,0x5
     938:	1ea04463          	bgtz	a0,b20 <_etoa+0x58c>
     93c:	00080713          	mv	a4,a6
     940:	000d8793          	mv	a5,s11
     944:	0c600693          	li	a3,198
     948:	06390d93          	addi	s11,s2,99
     94c:	01b6bdb3          	sltu	s11,a3,s11
     950:	00bad693          	srli	a3,s5,0xb
     954:	0016f693          	andi	a3,a3,1
     958:	004d8d93          	addi	s11,s11,4
     95c:	06068663          	beqz	a3,9c8 <_etoa+0x434>
     960:	000056b7          	lui	a3,0x5
     964:	4c86a603          	lw	a2,1224(a3) # 54c8 <send_string+0xc0>
     968:	4cc6a683          	lw	a3,1228(a3)
     96c:	00048513          	mv	a0,s1
     970:	00040593          	mv	a1,s0
     974:	00e12823          	sw	a4,16(sp)
     978:	00f12a23          	sw	a5,20(sp)
     97c:	0c4030ef          	jal	ra,3a40 <__gedf2>
     980:	01012703          	lw	a4,16(sp)
     984:	01412783          	lw	a5,20(sp)
     988:	1c054263          	bltz	a0,b4c <_etoa+0x5b8>
     98c:	000056b7          	lui	a3,0x5
     990:	4d06a603          	lw	a2,1232(a3) # 54d0 <send_string+0xc8>
     994:	4d46a683          	lw	a3,1236(a3)
     998:	00048513          	mv	a0,s1
     99c:	00040593          	mv	a1,s0
     9a0:	184030ef          	jal	ra,3b24 <__ledf2>
     9a4:	01012703          	lw	a4,16(sp)
     9a8:	01412783          	lw	a5,20(sp)
     9ac:	1a055063          	bgez	a0,b4c <_etoa+0x5b8>
     9b0:	19395a63          	bge	s2,s3,b44 <_etoa+0x5b0>
     9b4:	41298933          	sub	s2,s3,s2
     9b8:	fff90993          	addi	s3,s2,-1
     9bc:	400aea93          	ori	s5,s5,1024
     9c0:	00000d93          	li	s11,0
     9c4:	00000913          	li	s2,0
     9c8:	00000893          	li	a7,0
     9cc:	019df463          	bgeu	s11,s9,9d4 <_etoa+0x440>
     9d0:	41bc88b3          	sub	a7,s9,s11
     9d4:	002af693          	andi	a3,s5,2
     9d8:	00d12823          	sw	a3,16(sp)
     9dc:	00068663          	beqz	a3,9e8 <_etoa+0x454>
     9e0:	000d8463          	beqz	s11,9e8 <_etoa+0x454>
     9e4:	00000893          	li	a7,0
     9e8:	02090463          	beqz	s2,a10 <_etoa+0x47c>
     9ec:	00040593          	mv	a1,s0
     9f0:	00070613          	mv	a2,a4
     9f4:	00078693          	mv	a3,a5
     9f8:	00048513          	mv	a0,s1
     9fc:	01112e23          	sw	a7,28(sp)
     a00:	7d4020ef          	jal	ra,31d4 <__divdf3>
     a04:	01c12883          	lw	a7,28(sp)
     a08:	00a12c23          	sw	a0,24(sp)
     a0c:	00058413          	mv	s0,a1
     a10:	00000613          	li	a2,0
     a14:	00000693          	li	a3,0
     a18:	00048513          	mv	a0,s1
     a1c:	000a0593          	mv	a1,s4
     a20:	01112e23          	sw	a7,28(sp)
     a24:	100030ef          	jal	ra,3b24 <__ledf2>
     a28:	01c12883          	lw	a7,28(sp)
     a2c:	00055663          	bgez	a0,a38 <_etoa+0x4a4>
     a30:	800007b7          	lui	a5,0x80000
     a34:	0087c433          	xor	s0,a5,s0
     a38:	01812603          	lw	a2,24(sp)
     a3c:	fffff7b7          	lui	a5,0xfffff
     a40:	7ff78793          	addi	a5,a5,2047 # fffff7ff <_heap_start+0xffff98bb>
     a44:	00faf7b3          	and	a5,s5,a5
     a48:	00f12023          	sw	a5,0(sp)
     a4c:	00060713          	mv	a4,a2
     a50:	00098813          	mv	a6,s3
     a54:	000d0613          	mv	a2,s10
     a58:	00040793          	mv	a5,s0
     a5c:	000c0693          	mv	a3,s8
     a60:	000b8593          	mv	a1,s7
     a64:	000b0513          	mv	a0,s6
     a68:	118000ef          	jal	ra,b80 <_ftoa>
     a6c:	00050613          	mv	a2,a0
     a70:	060d8863          	beqz	s11,ae0 <_etoa+0x54c>
     a74:	020afa93          	andi	s5,s5,32
     a78:	04500513          	li	a0,69
     a7c:	000a9463          	bnez	s5,a84 <_etoa+0x4f0>
     a80:	06500513          	li	a0,101
     a84:	000c0693          	mv	a3,s8
     a88:	000b8593          	mv	a1,s7
     a8c:	00160413          	addi	s0,a2,1
     a90:	000b00e7          	jalr	s6
     a94:	41f95713          	srai	a4,s2,0x1f
     a98:	012746b3          	xor	a3,a4,s2
     a9c:	00500793          	li	a5,5
     aa0:	fffd8d93          	addi	s11,s11,-1
     aa4:	00040613          	mv	a2,s0
     aa8:	00f12223          	sw	a5,4(sp)
     aac:	40e68733          	sub	a4,a3,a4
     ab0:	01f95793          	srli	a5,s2,0x1f
     ab4:	01b12023          	sw	s11,0(sp)
     ab8:	00000893          	li	a7,0
     abc:	00a00813          	li	a6,10
     ac0:	000c0693          	mv	a3,s8
     ac4:	000b8593          	mv	a1,s7
     ac8:	000b0513          	mv	a0,s6
     acc:	fecff0ef          	jal	ra,2b8 <_ntoa_long>
     ad0:	01012783          	lw	a5,16(sp)
     ad4:	00050613          	mv	a2,a0
     ad8:	41a50433          	sub	s0,a0,s10
     adc:	08079c63          	bnez	a5,b74 <_etoa+0x5e0>
     ae0:	06c12083          	lw	ra,108(sp)
     ae4:	06812403          	lw	s0,104(sp)
     ae8:	06412483          	lw	s1,100(sp)
     aec:	06012903          	lw	s2,96(sp)
     af0:	05c12983          	lw	s3,92(sp)
     af4:	05812a03          	lw	s4,88(sp)
     af8:	05412a83          	lw	s5,84(sp)
     afc:	05012b03          	lw	s6,80(sp)
     b00:	04c12b83          	lw	s7,76(sp)
     b04:	04812c03          	lw	s8,72(sp)
     b08:	04412c83          	lw	s9,68(sp)
     b0c:	04012d03          	lw	s10,64(sp)
     b10:	03c12d83          	lw	s11,60(sp)
     b14:	00060513          	mv	a0,a2
     b18:	07010113          	addi	sp,sp,112
     b1c:	00008067          	ret
     b20:	4a88a603          	lw	a2,1192(a7) # 54a8 <send_string+0xa0>
     b24:	4ac8a683          	lw	a3,1196(a7)
     b28:	00080513          	mv	a0,a6
     b2c:	000d8593          	mv	a1,s11
     b30:	6a4020ef          	jal	ra,31d4 <__divdf3>
     b34:	fff90913          	addi	s2,s2,-1
     b38:	00050713          	mv	a4,a0
     b3c:	00058793          	mv	a5,a1
     b40:	e05ff06f          	j	944 <_etoa+0x3b0>
     b44:	00000993          	li	s3,0
     b48:	e75ff06f          	j	9bc <_etoa+0x428>
     b4c:	e6098ee3          	beqz	s3,9c8 <_etoa+0x434>
     b50:	400af693          	andi	a3,s5,1024
     b54:	e6068ae3          	beqz	a3,9c8 <_etoa+0x434>
     b58:	fff98993          	addi	s3,s3,-1
     b5c:	e6dff06f          	j	9c8 <_etoa+0x434>
     b60:	000c0693          	mv	a3,s8
     b64:	000b8593          	mv	a1,s7
     b68:	02000513          	li	a0,32
     b6c:	000b00e7          	jalr	s6
     b70:	00140413          	addi	s0,s0,1 # 80000001 <_heap_start+0x7fffa0bd>
     b74:	008d0633          	add	a2,s10,s0
     b78:	ff9464e3          	bltu	s0,s9,b60 <_etoa+0x5cc>
     b7c:	f65ff06f          	j	ae0 <_etoa+0x54c>

00000b80 <_ftoa>:
     b80:	f8010113          	addi	sp,sp,-128
     b84:	05812c23          	sw	s8,88(sp)
     b88:	05912a23          	sw	s9,84(sp)
     b8c:	05a12823          	sw	s10,80(sp)
     b90:	05b12623          	sw	s11,76(sp)
     b94:	00050c13          	mv	s8,a0
     b98:	00058c93          	mv	s9,a1
     b9c:	00060d13          	mv	s10,a2
     ba0:	00068d93          	mv	s11,a3
     ba4:	00070613          	mv	a2,a4
     ba8:	00078693          	mv	a3,a5
     bac:	00070513          	mv	a0,a4
     bb0:	00078593          	mv	a1,a5
     bb4:	06812c23          	sw	s0,120(sp)
     bb8:	06912a23          	sw	s1,116(sp)
     bbc:	07312623          	sw	s3,108(sp)
     bc0:	07412423          	sw	s4,104(sp)
     bc4:	07512223          	sw	s5,100(sp)
     bc8:	06112e23          	sw	ra,124(sp)
     bcc:	07212823          	sw	s2,112(sp)
     bd0:	07612023          	sw	s6,96(sp)
     bd4:	05712e23          	sw	s7,92(sp)
     bd8:	08012a83          	lw	s5,128(sp)
     bdc:	00070493          	mv	s1,a4
     be0:	00078413          	mv	s0,a5
     be4:	00080993          	mv	s3,a6
     be8:	00088a13          	mv	s4,a7
     bec:	5c9020ef          	jal	ra,39b4 <__eqdf2>
     bf0:	06050263          	beqz	a0,c54 <_ftoa+0xd4>
     bf4:	00005737          	lui	a4,0x5
     bf8:	000a8893          	mv	a7,s5
     bfc:	000a0813          	mv	a6,s4
     c00:	00300793          	li	a5,3
     c04:	44470713          	addi	a4,a4,1092 # 5444 <send_string+0x3c>
     c08:	07812403          	lw	s0,120(sp)
     c0c:	07c12083          	lw	ra,124(sp)
     c10:	07412483          	lw	s1,116(sp)
     c14:	07012903          	lw	s2,112(sp)
     c18:	06c12983          	lw	s3,108(sp)
     c1c:	06812a03          	lw	s4,104(sp)
     c20:	06412a83          	lw	s5,100(sp)
     c24:	06012b03          	lw	s6,96(sp)
     c28:	05c12b83          	lw	s7,92(sp)
     c2c:	000d8693          	mv	a3,s11
     c30:	000d0613          	mv	a2,s10
     c34:	04c12d83          	lw	s11,76(sp)
     c38:	05012d03          	lw	s10,80(sp)
     c3c:	000c8593          	mv	a1,s9
     c40:	000c0513          	mv	a0,s8
     c44:	05412c83          	lw	s9,84(sp)
     c48:	05812c03          	lw	s8,88(sp)
     c4c:	08010113          	addi	sp,sp,128
     c50:	bd4ff06f          	j	24 <_out_rev>
     c54:	000057b7          	lui	a5,0x5
     c58:	4587a603          	lw	a2,1112(a5) # 5458 <send_string+0x50>
     c5c:	45c7a683          	lw	a3,1116(a5)
     c60:	00048513          	mv	a0,s1
     c64:	00040593          	mv	a1,s0
     c68:	6bd020ef          	jal	ra,3b24 <__ledf2>
     c6c:	00055e63          	bgez	a0,c88 <_ftoa+0x108>
     c70:	00005737          	lui	a4,0x5
     c74:	000a8893          	mv	a7,s5
     c78:	000a0813          	mv	a6,s4
     c7c:	00400793          	li	a5,4
     c80:	44870713          	addi	a4,a4,1096 # 5448 <send_string+0x40>
     c84:	f85ff06f          	j	c08 <_ftoa+0x88>
     c88:	000057b7          	lui	a5,0x5
     c8c:	4507a603          	lw	a2,1104(a5) # 5450 <send_string+0x48>
     c90:	4547a683          	lw	a3,1108(a5)
     c94:	00048513          	mv	a0,s1
     c98:	00040593          	mv	a1,s0
     c9c:	5a5020ef          	jal	ra,3a40 <__gedf2>
     ca0:	02a05a63          	blez	a0,cd4 <_ftoa+0x154>
     ca4:	004af793          	andi	a5,s5,4
     ca8:	00078e63          	beqz	a5,cc4 <_ftoa+0x144>
     cac:	00005737          	lui	a4,0x5
     cb0:	43870713          	addi	a4,a4,1080 # 5438 <send_string+0x30>
     cb4:	00400793          	li	a5,4
     cb8:	000a8893          	mv	a7,s5
     cbc:	000a0813          	mv	a6,s4
     cc0:	f49ff06f          	j	c08 <_ftoa+0x88>
     cc4:	00005737          	lui	a4,0x5
     cc8:	44070713          	addi	a4,a4,1088 # 5440 <send_string+0x38>
     ccc:	00300793          	li	a5,3
     cd0:	fe9ff06f          	j	cb8 <_ftoa+0x138>
     cd4:	000057b7          	lui	a5,0x5
     cd8:	4d87a603          	lw	a2,1240(a5) # 54d8 <send_string+0xd0>
     cdc:	4dc7a683          	lw	a3,1244(a5)
     ce0:	00048513          	mv	a0,s1
     ce4:	00040593          	mv	a1,s0
     ce8:	559020ef          	jal	ra,3a40 <__gedf2>
     cec:	02a04063          	bgtz	a0,d0c <_ftoa+0x18c>
     cf0:	000057b7          	lui	a5,0x5
     cf4:	4e07a603          	lw	a2,1248(a5) # 54e0 <send_string+0xd8>
     cf8:	4e47a683          	lw	a3,1252(a5)
     cfc:	00048513          	mv	a0,s1
     d00:	00040593          	mv	a1,s0
     d04:	621020ef          	jal	ra,3b24 <__ledf2>
     d08:	06055263          	bgez	a0,d6c <_ftoa+0x1ec>
     d0c:	00040793          	mv	a5,s0
     d10:	07812403          	lw	s0,120(sp)
     d14:	09512023          	sw	s5,128(sp)
     d18:	07c12083          	lw	ra,124(sp)
     d1c:	07012903          	lw	s2,112(sp)
     d20:	06412a83          	lw	s5,100(sp)
     d24:	06012b03          	lw	s6,96(sp)
     d28:	05c12b83          	lw	s7,92(sp)
     d2c:	000a0893          	mv	a7,s4
     d30:	00098813          	mv	a6,s3
     d34:	06812a03          	lw	s4,104(sp)
     d38:	06c12983          	lw	s3,108(sp)
     d3c:	00048713          	mv	a4,s1
     d40:	000d8693          	mv	a3,s11
     d44:	07412483          	lw	s1,116(sp)
     d48:	04c12d83          	lw	s11,76(sp)
     d4c:	000d0613          	mv	a2,s10
     d50:	000c8593          	mv	a1,s9
     d54:	05012d03          	lw	s10,80(sp)
     d58:	05412c83          	lw	s9,84(sp)
     d5c:	000c0513          	mv	a0,s8
     d60:	05812c03          	lw	s8,88(sp)
     d64:	08010113          	addi	sp,sp,128
     d68:	82dff06f          	j	594 <_etoa>
     d6c:	00000613          	li	a2,0
     d70:	00000693          	li	a3,0
     d74:	00048513          	mv	a0,s1
     d78:	00040593          	mv	a1,s0
     d7c:	5a9020ef          	jal	ra,3b24 <__ledf2>
     d80:	1c055263          	bgez	a0,f44 <_ftoa+0x3c4>
     d84:	00048613          	mv	a2,s1
     d88:	00040693          	mv	a3,s0
     d8c:	00000513          	li	a0,0
     d90:	00000593          	li	a1,0
     d94:	540030ef          	jal	ra,42d4 <__subdf3>
     d98:	00100793          	li	a5,1
     d9c:	00050493          	mv	s1,a0
     da0:	00058413          	mv	s0,a1
     da4:	00f12623          	sw	a5,12(sp)
     da8:	400af793          	andi	a5,s5,1024
     dac:	1a078063          	beqz	a5,f4c <_ftoa+0x3cc>
     db0:	00000b93          	li	s7,0
     db4:	00900793          	li	a5,9
     db8:	03000713          	li	a4,48
     dbc:	02000693          	li	a3,32
     dc0:	0137fe63          	bgeu	a5,s3,ddc <_ftoa+0x25c>
     dc4:	020b8613          	addi	a2,s7,32
     dc8:	00260633          	add	a2,a2,sp
     dcc:	00e60023          	sb	a4,0(a2)
     dd0:	001b8b93          	addi	s7,s7,1
     dd4:	fff98993          	addi	s3,s3,-1
     dd8:	fedb94e3          	bne	s7,a3,dc0 <_ftoa+0x240>
     ddc:	00040593          	mv	a1,s0
     de0:	00048513          	mv	a0,s1
     de4:	4e1030ef          	jal	ra,4ac4 <__fixdfsi>
     de8:	000057b7          	lui	a5,0x5
     dec:	00399713          	slli	a4,s3,0x3
     df0:	e9078793          	addi	a5,a5,-368 # 4e90 <pow10.0>
     df4:	00e787b3          	add	a5,a5,a4
     df8:	0047a803          	lw	a6,4(a5)
     dfc:	0007a783          	lw	a5,0(a5)
     e00:	00050913          	mv	s2,a0
     e04:	01012a23          	sw	a6,20(sp)
     e08:	00f12823          	sw	a5,16(sp)
     e0c:	5b5030ef          	jal	ra,4bc0 <__floatsidf>
     e10:	00050613          	mv	a2,a0
     e14:	00058693          	mv	a3,a1
     e18:	00048513          	mv	a0,s1
     e1c:	00040593          	mv	a1,s0
     e20:	4b4030ef          	jal	ra,42d4 <__subdf3>
     e24:	01012603          	lw	a2,16(sp)
     e28:	01412683          	lw	a3,20(sp)
     e2c:	5dd020ef          	jal	ra,3c08 <__muldf3>
     e30:	00b12c23          	sw	a1,24(sp)
     e34:	00a12e23          	sw	a0,28(sp)
     e38:	50d030ef          	jal	ra,4b44 <__fixunsdfsi>
     e3c:	00050b13          	mv	s6,a0
     e40:	629030ef          	jal	ra,4c68 <__floatunsidf>
     e44:	01c12703          	lw	a4,28(sp)
     e48:	01812783          	lw	a5,24(sp)
     e4c:	00050613          	mv	a2,a0
     e50:	00058693          	mv	a3,a1
     e54:	00070513          	mv	a0,a4
     e58:	00078593          	mv	a1,a5
     e5c:	478030ef          	jal	ra,42d4 <__subdf3>
     e60:	000057b7          	lui	a5,0x5
     e64:	4887a703          	lw	a4,1160(a5) # 5488 <send_string+0x80>
     e68:	48c7a783          	lw	a5,1164(a5)
     e6c:	00a12e23          	sw	a0,28(sp)
     e70:	00070613          	mv	a2,a4
     e74:	00078693          	mv	a3,a5
     e78:	00b12c23          	sw	a1,24(sp)
     e7c:	3c5020ef          	jal	ra,3a40 <__gedf2>
     e80:	000057b7          	lui	a5,0x5
     e84:	4887a703          	lw	a4,1160(a5) # 5488 <send_string+0x80>
     e88:	01812883          	lw	a7,24(sp)
     e8c:	48c7a783          	lw	a5,1164(a5)
     e90:	01c12e03          	lw	t3,28(sp)
     e94:	0ca05063          	blez	a0,f54 <_ftoa+0x3d4>
     e98:	001b0b13          	addi	s6,s6,1
     e9c:	000b0513          	mv	a0,s6
     ea0:	5c9030ef          	jal	ra,4c68 <__floatunsidf>
     ea4:	00050613          	mv	a2,a0
     ea8:	00058693          	mv	a3,a1
     eac:	01012503          	lw	a0,16(sp)
     eb0:	01412583          	lw	a1,20(sp)
     eb4:	471020ef          	jal	ra,3b24 <__ledf2>
     eb8:	00a04663          	bgtz	a0,ec4 <_ftoa+0x344>
     ebc:	00190913          	addi	s2,s2,1
     ec0:	00000b13          	li	s6,0
     ec4:	0a098e63          	beqz	s3,f80 <_ftoa+0x400>
     ec8:	02000413          	li	s0,32
     ecc:	00900493          	li	s1,9
     ed0:	128b8063          	beq	s7,s0,ff0 <_ftoa+0x470>
     ed4:	001b8b93          	addi	s7,s7,1
     ed8:	020b8793          	addi	a5,s7,32
     edc:	002787b3          	add	a5,a5,sp
     ee0:	00a00593          	li	a1,10
     ee4:	000b0513          	mv	a0,s6
     ee8:	00f12823          	sw	a5,16(sp)
     eec:	671030ef          	jal	ra,4d5c <__umodsi3>
     ef0:	01012783          	lw	a5,16(sp)
     ef4:	03050513          	addi	a0,a0,48
     ef8:	00a00593          	li	a1,10
     efc:	fea78fa3          	sb	a0,-1(a5)
     f00:	000b0513          	mv	a0,s6
     f04:	fff98993          	addi	s3,s3,-1
     f08:	60d030ef          	jal	ra,4d14 <__udivsi3>
     f0c:	1564e863          	bltu	s1,s6,105c <_ftoa+0x4dc>
     f10:	017989b3          	add	s3,s3,s7
     f14:	02000713          	li	a4,32
     f18:	03000693          	li	a3,48
     f1c:	0ceb8a63          	beq	s7,a4,ff0 <_ftoa+0x470>
     f20:	001b8793          	addi	a5,s7,1
     f24:	15799063          	bne	s3,s7,1064 <_ftoa+0x4e4>
     f28:	020b8713          	addi	a4,s7,32
     f2c:	02010693          	addi	a3,sp,32
     f30:	00d70333          	add	t1,a4,a3
     f34:	02e00713          	li	a4,46
     f38:	fee30023          	sb	a4,-32(t1)
     f3c:	00078b93          	mv	s7,a5
     f40:	0b00006f          	j	ff0 <_ftoa+0x470>
     f44:	00012623          	sw	zero,12(sp)
     f48:	e61ff06f          	j	da8 <_ftoa+0x228>
     f4c:	00600993          	li	s3,6
     f50:	e61ff06f          	j	db0 <_ftoa+0x230>
     f54:	00070613          	mv	a2,a4
     f58:	00078693          	mv	a3,a5
     f5c:	000e0513          	mv	a0,t3
     f60:	00088593          	mv	a1,a7
     f64:	3c1020ef          	jal	ra,3b24 <__ledf2>
     f68:	f4054ee3          	bltz	a0,ec4 <_ftoa+0x344>
     f6c:	000b0663          	beqz	s6,f78 <_ftoa+0x3f8>
     f70:	001b7793          	andi	a5,s6,1
     f74:	f40788e3          	beqz	a5,ec4 <_ftoa+0x344>
     f78:	001b0b13          	addi	s6,s6,1
     f7c:	f49ff06f          	j	ec4 <_ftoa+0x344>
     f80:	00090513          	mv	a0,s2
     f84:	43d030ef          	jal	ra,4bc0 <__floatsidf>
     f88:	00050613          	mv	a2,a0
     f8c:	00058693          	mv	a3,a1
     f90:	00048513          	mv	a0,s1
     f94:	00040593          	mv	a1,s0
     f98:	33c030ef          	jal	ra,42d4 <__subdf3>
     f9c:	000057b7          	lui	a5,0x5
     fa0:	4887a703          	lw	a4,1160(a5) # 5488 <send_string+0x80>
     fa4:	00078993          	mv	s3,a5
     fa8:	48c7a783          	lw	a5,1164(a5)
     fac:	00070613          	mv	a2,a4
     fb0:	00050493          	mv	s1,a0
     fb4:	00078693          	mv	a3,a5
     fb8:	00058413          	mv	s0,a1
     fbc:	369020ef          	jal	ra,3b24 <__ledf2>
     fc0:	02055263          	bgez	a0,fe4 <_ftoa+0x464>
     fc4:	4889a703          	lw	a4,1160(s3)
     fc8:	48c9a783          	lw	a5,1164(s3)
     fcc:	00048513          	mv	a0,s1
     fd0:	00070613          	mv	a2,a4
     fd4:	00078693          	mv	a3,a5
     fd8:	00040593          	mv	a1,s0
     fdc:	265020ef          	jal	ra,3a40 <__gedf2>
     fe0:	00a05863          	blez	a0,ff0 <_ftoa+0x470>
     fe4:	00197793          	andi	a5,s2,1
     fe8:	00078463          	beqz	a5,ff0 <_ftoa+0x470>
     fec:	00190913          	addi	s2,s2,1
     ff0:	02000413          	li	s0,32
     ff4:	028b8c63          	beq	s7,s0,102c <_ftoa+0x4ac>
     ff8:	001b8b93          	addi	s7,s7,1
     ffc:	020b8793          	addi	a5,s7,32
    1000:	00a00593          	li	a1,10
    1004:	00090513          	mv	a0,s2
    1008:	002784b3          	add	s1,a5,sp
    100c:	585030ef          	jal	ra,4d90 <__modsi3>
    1010:	03050513          	addi	a0,a0,48
    1014:	fea48fa3          	sb	a0,-1(s1)
    1018:	00a00593          	li	a1,10
    101c:	00090513          	mv	a0,s2
    1020:	4ed030ef          	jal	ra,4d0c <__divsi3>
    1024:	00050913          	mv	s2,a0
    1028:	fc0516e3          	bnez	a0,ff4 <_ftoa+0x474>
    102c:	003af793          	andi	a5,s5,3
    1030:	00100713          	li	a4,1
    1034:	0ae79e63          	bne	a5,a4,10f0 <_ftoa+0x570>
    1038:	0a0a0c63          	beqz	s4,10f0 <_ftoa+0x570>
    103c:	00c12783          	lw	a5,12(sp)
    1040:	00079663          	bnez	a5,104c <_ftoa+0x4cc>
    1044:	00caf793          	andi	a5,s5,12
    1048:	00078463          	beqz	a5,1050 <_ftoa+0x4d0>
    104c:	fffa0a13          	addi	s4,s4,-1
    1050:	02000793          	li	a5,32
    1054:	03000713          	li	a4,48
    1058:	0300006f          	j	1088 <_ftoa+0x508>
    105c:	00050b13          	mv	s6,a0
    1060:	e71ff06f          	j	ed0 <_ftoa+0x350>
    1064:	020b8613          	addi	a2,s7,32
    1068:	00260333          	add	t1,a2,sp
    106c:	00d30023          	sb	a3,0(t1)
    1070:	00078b93          	mv	s7,a5
    1074:	ea9ff06f          	j	f1c <_ftoa+0x39c>
    1078:	020b8693          	addi	a3,s7,32
    107c:	002686b3          	add	a3,a3,sp
    1080:	00e68023          	sb	a4,0(a3)
    1084:	001b8b93          	addi	s7,s7,1
    1088:	074bf463          	bgeu	s7,s4,10f0 <_ftoa+0x570>
    108c:	fefb96e3          	bne	s7,a5,1078 <_ftoa+0x4f8>
    1090:	000a8893          	mv	a7,s5
    1094:	000a0813          	mv	a6,s4
    1098:	000b8793          	mv	a5,s7
    109c:	02010713          	addi	a4,sp,32
    10a0:	000d8693          	mv	a3,s11
    10a4:	000d0613          	mv	a2,s10
    10a8:	000c8593          	mv	a1,s9
    10ac:	000c0513          	mv	a0,s8
    10b0:	f75fe0ef          	jal	ra,24 <_out_rev>
    10b4:	07c12083          	lw	ra,124(sp)
    10b8:	07812403          	lw	s0,120(sp)
    10bc:	07412483          	lw	s1,116(sp)
    10c0:	07012903          	lw	s2,112(sp)
    10c4:	06c12983          	lw	s3,108(sp)
    10c8:	06812a03          	lw	s4,104(sp)
    10cc:	06412a83          	lw	s5,100(sp)
    10d0:	06012b03          	lw	s6,96(sp)
    10d4:	05c12b83          	lw	s7,92(sp)
    10d8:	05812c03          	lw	s8,88(sp)
    10dc:	05412c83          	lw	s9,84(sp)
    10e0:	05012d03          	lw	s10,80(sp)
    10e4:	04c12d83          	lw	s11,76(sp)
    10e8:	08010113          	addi	sp,sp,128
    10ec:	00008067          	ret
    10f0:	02000793          	li	a5,32
    10f4:	f8fb8ee3          	beq	s7,a5,1090 <_ftoa+0x510>
    10f8:	00c12703          	lw	a4,12(sp)
    10fc:	02070063          	beqz	a4,111c <_ftoa+0x59c>
    1100:	02010713          	addi	a4,sp,32
    1104:	020b8793          	addi	a5,s7,32
    1108:	00e787b3          	add	a5,a5,a4
    110c:	02d00713          	li	a4,45
    1110:	fee78023          	sb	a4,-32(a5)
    1114:	001b8b93          	addi	s7,s7,1
    1118:	f79ff06f          	j	1090 <_ftoa+0x510>
    111c:	004af713          	andi	a4,s5,4
    1120:	00070c63          	beqz	a4,1138 <_ftoa+0x5b8>
    1124:	02010713          	addi	a4,sp,32
    1128:	020b8793          	addi	a5,s7,32
    112c:	00e787b3          	add	a5,a5,a4
    1130:	02b00713          	li	a4,43
    1134:	fddff06f          	j	1110 <_ftoa+0x590>
    1138:	008af713          	andi	a4,s5,8
    113c:	f4070ae3          	beqz	a4,1090 <_ftoa+0x510>
    1140:	020b8713          	addi	a4,s7,32
    1144:	02010693          	addi	a3,sp,32
    1148:	00d70733          	add	a4,a4,a3
    114c:	fef70023          	sb	a5,-32(a4)
    1150:	fc5ff06f          	j	1114 <_ftoa+0x594>

00001154 <_out_char>:
    1154:	00050863          	beqz	a0,1164 <_out_char+0x10>
    1158:	000057b7          	lui	a5,0x5
    115c:	4e87a783          	lw	a5,1256(a5) # 54e8 <g_uart_putc_ptr>
    1160:	00078067          	jr	a5
    1164:	00008067          	ret

00001168 <_out_fct>:
    1168:	00050863          	beqz	a0,1178 <_out_fct+0x10>
    116c:	0005a783          	lw	a5,0(a1)
    1170:	0045a583          	lw	a1,4(a1)
    1174:	00078067          	jr	a5
    1178:	00008067          	ret

0000117c <_vsnprintf>:
    117c:	f9010113          	addi	sp,sp,-112
    1180:	06912223          	sw	s1,100(sp)
    1184:	07212023          	sw	s2,96(sp)
    1188:	05312e23          	sw	s3,92(sp)
    118c:	05412c23          	sw	s4,88(sp)
    1190:	05912223          	sw	s9,68(sp)
    1194:	06112623          	sw	ra,108(sp)
    1198:	06812423          	sw	s0,104(sp)
    119c:	05512a23          	sw	s5,84(sp)
    11a0:	05612823          	sw	s6,80(sp)
    11a4:	05712623          	sw	s7,76(sp)
    11a8:	05812423          	sw	s8,72(sp)
    11ac:	05a12023          	sw	s10,64(sp)
    11b0:	03b12e23          	sw	s11,60(sp)
    11b4:	00058a13          	mv	s4,a1
    11b8:	00060993          	mv	s3,a2
    11bc:	00068493          	mv	s1,a3
    11c0:	00070c93          	mv	s9,a4
    11c4:	00050913          	mv	s2,a0
    11c8:	00059463          	bnez	a1,11d0 <_vsnprintf+0x54>
    11cc:	02000913          	li	s2,32
    11d0:	00010ab7          	lui	s5,0x10
    11d4:	fffa8793          	addi	a5,s5,-1 # ffff <_heap_start+0xa0bb>
    11d8:	00009b37          	lui	s6,0x9
    11dc:	00f12e23          	sw	a5,28(sp)
    11e0:	00001bb7          	lui	s7,0x1
    11e4:	041b0793          	addi	a5,s6,65 # 9041 <_heap_start+0x30fd>
    11e8:	02f12023          	sw	a5,32(sp)
    11ec:	00005c37          	lui	s8,0x5
    11f0:	800b8793          	addi	a5,s7,-2048 # 800 <_etoa+0x26c>
    11f4:	00000d93          	li	s11,0
    11f8:	02f12223          	sw	a5,36(sp)
    11fc:	e50c0c13          	addi	s8,s8,-432 # 4e50 <strcmp+0x20>
    1200:	4040006f          	j	1604 <_vsnprintf+0x488>
    1204:	02500793          	li	a5,37
    1208:	00148493          	addi	s1,s1,1
    120c:	00f50c63          	beq	a0,a5,1224 <_vsnprintf+0xa8>
    1210:	001d8413          	addi	s0,s11,1
    1214:	00098693          	mv	a3,s3
    1218:	000d8613          	mv	a2,s11
    121c:	000a0593          	mv	a1,s4
    1220:	1cc0006f          	j	13ec <_vsnprintf+0x270>
    1224:	00000313          	li	t1,0
    1228:	02b00713          	li	a4,43
    122c:	02d00613          	li	a2,45
    1230:	03000593          	li	a1,48
    1234:	02000513          	li	a0,32
    1238:	02300813          	li	a6,35
    123c:	0140006f          	j	1250 <_vsnprintf+0xd4>
    1240:	04c78263          	beq	a5,a2,1284 <_vsnprintf+0x108>
    1244:	02b79263          	bne	a5,a1,1268 <_vsnprintf+0xec>
    1248:	00136313          	ori	t1,t1,1
    124c:	00068493          	mv	s1,a3
    1250:	0004c783          	lbu	a5,0(s1)
    1254:	00148693          	addi	a3,s1,1
    1258:	02e78a63          	beq	a5,a4,128c <_vsnprintf+0x110>
    125c:	fef762e3          	bltu	a4,a5,1240 <_vsnprintf+0xc4>
    1260:	02a78a63          	beq	a5,a0,1294 <_vsnprintf+0x118>
    1264:	03078c63          	beq	a5,a6,129c <_vsnprintf+0x120>
    1268:	fd078713          	addi	a4,a5,-48
    126c:	0ff77713          	zext.b	a4,a4
    1270:	00900613          	li	a2,9
    1274:	08e66863          	bltu	a2,a4,1304 <_vsnprintf+0x188>
    1278:	00000a93          	li	s5,0
    127c:	00900693          	li	a3,9
    1280:	03c0006f          	j	12bc <_vsnprintf+0x140>
    1284:	00236313          	ori	t1,t1,2
    1288:	fc5ff06f          	j	124c <_vsnprintf+0xd0>
    128c:	00436313          	ori	t1,t1,4
    1290:	fbdff06f          	j	124c <_vsnprintf+0xd0>
    1294:	00836313          	ori	t1,t1,8
    1298:	fb5ff06f          	j	124c <_vsnprintf+0xd0>
    129c:	01036313          	ori	t1,t1,16
    12a0:	fadff06f          	j	124c <_vsnprintf+0xd0>
    12a4:	002a9793          	slli	a5,s5,0x2
    12a8:	015787b3          	add	a5,a5,s5
    12ac:	00179793          	slli	a5,a5,0x1
    12b0:	fd078793          	addi	a5,a5,-48
    12b4:	00f70ab3          	add	s5,a4,a5
    12b8:	00060493          	mv	s1,a2
    12bc:	0004c703          	lbu	a4,0(s1)
    12c0:	00148613          	addi	a2,s1,1
    12c4:	fd070793          	addi	a5,a4,-48
    12c8:	0ff7f793          	zext.b	a5,a5
    12cc:	fcf6fce3          	bgeu	a3,a5,12a4 <_vsnprintf+0x128>
    12d0:	0004c703          	lbu	a4,0(s1)
    12d4:	02e00793          	li	a5,46
    12d8:	00000d13          	li	s10,0
    12dc:	0af71463          	bne	a4,a5,1384 <_vsnprintf+0x208>
    12e0:	0014c683          	lbu	a3,1(s1)
    12e4:	00900613          	li	a2,9
    12e8:	00148793          	addi	a5,s1,1
    12ec:	fd068713          	addi	a4,a3,-48
    12f0:	0ff77713          	zext.b	a4,a4
    12f4:	40036313          	ori	t1,t1,1024
    12f8:	06e66663          	bltu	a2,a4,1364 <_vsnprintf+0x1e8>
    12fc:	00900613          	li	a2,9
    1300:	0480006f          	j	1348 <_vsnprintf+0x1cc>
    1304:	02a00713          	li	a4,42
    1308:	00000a93          	li	s5,0
    130c:	fce792e3          	bne	a5,a4,12d0 <_vsnprintf+0x154>
    1310:	000caa83          	lw	s5,0(s9)
    1314:	004c8793          	addi	a5,s9,4
    1318:	000ad663          	bgez	s5,1324 <_vsnprintf+0x1a8>
    131c:	00236313          	ori	t1,t1,2
    1320:	41500ab3          	neg	s5,s5
    1324:	00078c93          	mv	s9,a5
    1328:	00068493          	mv	s1,a3
    132c:	fa5ff06f          	j	12d0 <_vsnprintf+0x154>
    1330:	002d1793          	slli	a5,s10,0x2
    1334:	01a787b3          	add	a5,a5,s10
    1338:	00179793          	slli	a5,a5,0x1
    133c:	fd078793          	addi	a5,a5,-48
    1340:	00f68d33          	add	s10,a3,a5
    1344:	00058793          	mv	a5,a1
    1348:	0007c683          	lbu	a3,0(a5)
    134c:	00178593          	addi	a1,a5,1
    1350:	fd068713          	addi	a4,a3,-48
    1354:	0ff77713          	zext.b	a4,a4
    1358:	fce67ce3          	bgeu	a2,a4,1330 <_vsnprintf+0x1b4>
    135c:	00078493          	mv	s1,a5
    1360:	0240006f          	j	1384 <_vsnprintf+0x208>
    1364:	02a00713          	li	a4,42
    1368:	fee69ae3          	bne	a3,a4,135c <_vsnprintf+0x1e0>
    136c:	000cad03          	lw	s10,0(s9)
    1370:	004c8793          	addi	a5,s9,4
    1374:	000d5463          	bgez	s10,137c <_vsnprintf+0x200>
    1378:	00000d13          	li	s10,0
    137c:	00248493          	addi	s1,s1,2
    1380:	00078c93          	mv	s9,a5
    1384:	0004c783          	lbu	a5,0(s1)
    1388:	06c00693          	li	a3,108
    138c:	00148713          	addi	a4,s1,1
    1390:	08d78063          	beq	a5,a3,1410 <_vsnprintf+0x294>
    1394:	06f6e263          	bltu	a3,a5,13f8 <_vsnprintf+0x27c>
    1398:	06800693          	li	a3,104
    139c:	08d78463          	beq	a5,a3,1424 <_vsnprintf+0x2a8>
    13a0:	06a00693          	li	a3,106
    13a4:	08d78c63          	beq	a5,a3,143c <_vsnprintf+0x2c0>
    13a8:	00048713          	mv	a4,s1
    13ac:	00074503          	lbu	a0,0(a4)
    13b0:	06700793          	li	a5,103
    13b4:	00170493          	addi	s1,a4,1
    13b8:	10a7ec63          	bltu	a5,a0,14d0 <_vsnprintf+0x354>
    13bc:	05700793          	li	a5,87
    13c0:	08a7e263          	bltu	a5,a0,1444 <_vsnprintf+0x2c8>
    13c4:	04500793          	li	a5,69
    13c8:	0af50663          	beq	a0,a5,1474 <_vsnprintf+0x2f8>
    13cc:	08a7ec63          	bltu	a5,a0,1464 <_vsnprintf+0x2e8>
    13d0:	02500793          	li	a5,37
    13d4:	e2f51ee3          	bne	a0,a5,1210 <_vsnprintf+0x94>
    13d8:	001d8413          	addi	s0,s11,1
    13dc:	00098693          	mv	a3,s3
    13e0:	000d8613          	mv	a2,s11
    13e4:	000a0593          	mv	a1,s4
    13e8:	02500513          	li	a0,37
    13ec:	000900e7          	jalr	s2
    13f0:	00040d93          	mv	s11,s0
    13f4:	2100006f          	j	1604 <_vsnprintf+0x488>
    13f8:	07400693          	li	a3,116
    13fc:	00d78663          	beq	a5,a3,1408 <_vsnprintf+0x28c>
    1400:	07a00693          	li	a3,122
    1404:	fad792e3          	bne	a5,a3,13a8 <_vsnprintf+0x22c>
    1408:	10036313          	ori	t1,t1,256
    140c:	fa1ff06f          	j	13ac <_vsnprintf+0x230>
    1410:	0014c683          	lbu	a3,1(s1)
    1414:	fef69ae3          	bne	a3,a5,1408 <_vsnprintf+0x28c>
    1418:	30036313          	ori	t1,t1,768
    141c:	00248713          	addi	a4,s1,2
    1420:	f8dff06f          	j	13ac <_vsnprintf+0x230>
    1424:	0014c683          	lbu	a3,1(s1)
    1428:	00f68663          	beq	a3,a5,1434 <_vsnprintf+0x2b8>
    142c:	08036313          	ori	t1,t1,128
    1430:	f7dff06f          	j	13ac <_vsnprintf+0x230>
    1434:	0c036313          	ori	t1,t1,192
    1438:	fe5ff06f          	j	141c <_vsnprintf+0x2a0>
    143c:	20036313          	ori	t1,t1,512
    1440:	f6dff06f          	j	13ac <_vsnprintf+0x230>
    1444:	fa850793          	addi	a5,a0,-88
    1448:	0ff7f793          	zext.b	a5,a5
    144c:	00f00713          	li	a4,15
    1450:	dcf760e3          	bltu	a4,a5,1210 <_vsnprintf+0x94>
    1454:	00279793          	slli	a5,a5,0x2
    1458:	018787b3          	add	a5,a5,s8
    145c:	0007a783          	lw	a5,0(a5)
    1460:	00078067          	jr	a5
    1464:	04600793          	li	a5,70
    1468:	2ef50663          	beq	a0,a5,1754 <_vsnprintf+0x5d8>
    146c:	04700793          	li	a5,71
    1470:	daf510e3          	bne	a0,a5,1210 <_vsnprintf+0x94>
    1474:	0df57793          	andi	a5,a0,223
    1478:	04700713          	li	a4,71
    147c:	00e79863          	bne	a5,a4,148c <_vsnprintf+0x310>
    1480:	02412783          	lw	a5,36(sp)
    1484:	0fd57513          	andi	a0,a0,253
    1488:	00f36333          	or	t1,t1,a5
    148c:	04500793          	li	a5,69
    1490:	00f51463          	bne	a0,a5,1498 <_vsnprintf+0x31c>
    1494:	02036313          	ori	t1,t1,32
    1498:	007c8793          	addi	a5,s9,7
    149c:	ff87f793          	andi	a5,a5,-8
    14a0:	0007a703          	lw	a4,0(a5)
    14a4:	00878c93          	addi	s9,a5,8
    14a8:	0047a783          	lw	a5,4(a5)
    14ac:	000a8893          	mv	a7,s5
    14b0:	00612023          	sw	t1,0(sp)
    14b4:	000d0813          	mv	a6,s10
    14b8:	00098693          	mv	a3,s3
    14bc:	000d8613          	mv	a2,s11
    14c0:	000a0593          	mv	a1,s4
    14c4:	00090513          	mv	a0,s2
    14c8:	8ccff0ef          	jal	ra,594 <_etoa>
    14cc:	2c00006f          	j	178c <_vsnprintf+0x610>
    14d0:	f9750793          	addi	a5,a0,-105
    14d4:	0ff7f793          	zext.b	a5,a5
    14d8:	00f00713          	li	a4,15
    14dc:	d2f76ae3          	bltu	a4,a5,1210 <_vsnprintf+0x94>
    14e0:	02012683          	lw	a3,32(sp)
    14e4:	00100713          	li	a4,1
    14e8:	00f71733          	sll	a4,a4,a5
    14ec:	00d77733          	and	a4,a4,a3
    14f0:	02071c63          	bnez	a4,1528 <_vsnprintf+0x3ac>
    14f4:	00a00713          	li	a4,10
    14f8:	34e78a63          	beq	a5,a4,184c <_vsnprintf+0x6d0>
    14fc:	00700713          	li	a4,7
    1500:	d0e798e3          	bne	a5,a4,1210 <_vsnprintf+0x94>
    1504:	02136313          	ori	t1,t1,33
    1508:	00800793          	li	a5,8
    150c:	000ca703          	lw	a4,0(s9)
    1510:	004c8413          	addi	s0,s9,4
    1514:	00612223          	sw	t1,4(sp)
    1518:	00f12023          	sw	a5,0(sp)
    151c:	000d0893          	mv	a7,s10
    1520:	01000813          	li	a6,16
    1524:	2000006f          	j	1724 <_vsnprintf+0x5a8>
    1528:	07800793          	li	a5,120
    152c:	01000813          	li	a6,16
    1530:	02f50c63          	beq	a0,a5,1568 <_vsnprintf+0x3ec>
    1534:	06200793          	li	a5,98
    1538:	02f50c63          	beq	a0,a5,1570 <_vsnprintf+0x3f4>
    153c:	06f00793          	li	a5,111
    1540:	44f50663          	beq	a0,a5,198c <_vsnprintf+0x810>
    1544:	05800793          	li	a5,88
    1548:	00f50c63          	beq	a0,a5,1560 <_vsnprintf+0x3e4>
    154c:	fef37313          	andi	t1,t1,-17
    1550:	00a00813          	li	a6,10
    1554:	06900793          	li	a5,105
    1558:	02f50263          	beq	a0,a5,157c <_vsnprintf+0x400>
    155c:	0180006f          	j	1574 <_vsnprintf+0x3f8>
    1560:	02036313          	ori	t1,t1,32
    1564:	01000813          	li	a6,16
    1568:	ff337313          	andi	t1,t1,-13
    156c:	0100006f          	j	157c <_vsnprintf+0x400>
    1570:	00200813          	li	a6,2
    1574:	06400793          	li	a5,100
    1578:	fef518e3          	bne	a0,a5,1568 <_vsnprintf+0x3ec>
    157c:	40037793          	andi	a5,t1,1024
    1580:	00078463          	beqz	a5,1588 <_vsnprintf+0x40c>
    1584:	ffe37313          	andi	t1,t1,-2
    1588:	06900713          	li	a4,105
    158c:	20037793          	andi	a5,t1,512
    1590:	00e50663          	beq	a0,a4,159c <_vsnprintf+0x420>
    1594:	06400713          	li	a4,100
    1598:	12e51e63          	bne	a0,a4,16d4 <_vsnprintf+0x558>
    159c:	0c078663          	beqz	a5,1668 <_vsnprintf+0x4ec>
    15a0:	007c8c93          	addi	s9,s9,7
    15a4:	ff8cfc93          	andi	s9,s9,-8
    15a8:	004ca583          	lw	a1,4(s9)
    15ac:	000ca683          	lw	a3,0(s9)
    15b0:	00080893          	mv	a7,a6
    15b4:	41f5d613          	srai	a2,a1,0x1f
    15b8:	00d646b3          	xor	a3,a2,a3
    15bc:	00b647b3          	xor	a5,a2,a1
    15c0:	40c68733          	sub	a4,a3,a2
    15c4:	00e6b6b3          	sltu	a3,a3,a4
    15c8:	40c787b3          	sub	a5,a5,a2
    15cc:	008c8413          	addi	s0,s9,8
    15d0:	00612623          	sw	t1,12(sp)
    15d4:	01512423          	sw	s5,8(sp)
    15d8:	01a12223          	sw	s10,4(sp)
    15dc:	00012023          	sw	zero,0(sp)
    15e0:	01f5d813          	srli	a6,a1,0x1f
    15e4:	40d787b3          	sub	a5,a5,a3
    15e8:	00098693          	mv	a3,s3
    15ec:	000d8613          	mv	a2,s11
    15f0:	000a0593          	mv	a1,s4
    15f4:	00090513          	mv	a0,s2
    15f8:	e15fe0ef          	jal	ra,40c <_ntoa_long_long>
    15fc:	00050d93          	mv	s11,a0
    1600:	00040c93          	mv	s9,s0
    1604:	0004c503          	lbu	a0,0(s1)
    1608:	be051ee3          	bnez	a0,1204 <_vsnprintf+0x88>
    160c:	000d8613          	mv	a2,s11
    1610:	013de463          	bltu	s11,s3,1618 <_vsnprintf+0x49c>
    1614:	fff98613          	addi	a2,s3,-1
    1618:	00098693          	mv	a3,s3
    161c:	000a0593          	mv	a1,s4
    1620:	00000513          	li	a0,0
    1624:	000900e7          	jalr	s2
    1628:	06c12083          	lw	ra,108(sp)
    162c:	06812403          	lw	s0,104(sp)
    1630:	06412483          	lw	s1,100(sp)
    1634:	06012903          	lw	s2,96(sp)
    1638:	05c12983          	lw	s3,92(sp)
    163c:	05812a03          	lw	s4,88(sp)
    1640:	05412a83          	lw	s5,84(sp)
    1644:	05012b03          	lw	s6,80(sp)
    1648:	04c12b83          	lw	s7,76(sp)
    164c:	04812c03          	lw	s8,72(sp)
    1650:	04412c83          	lw	s9,68(sp)
    1654:	04012d03          	lw	s10,64(sp)
    1658:	000d8513          	mv	a0,s11
    165c:	03c12d83          	lw	s11,60(sp)
    1660:	07010113          	addi	sp,sp,112
    1664:	00008067          	ret
    1668:	10037793          	andi	a5,t1,256
    166c:	004c8413          	addi	s0,s9,4
    1670:	02078e63          	beqz	a5,16ac <_vsnprintf+0x530>
    1674:	000ca783          	lw	a5,0(s9)
    1678:	41f7d713          	srai	a4,a5,0x1f
    167c:	00f746b3          	xor	a3,a4,a5
    1680:	00612223          	sw	t1,4(sp)
    1684:	01512023          	sw	s5,0(sp)
    1688:	000d0893          	mv	a7,s10
    168c:	01f7d793          	srli	a5,a5,0x1f
    1690:	40e68733          	sub	a4,a3,a4
    1694:	00098693          	mv	a3,s3
    1698:	000d8613          	mv	a2,s11
    169c:	000a0593          	mv	a1,s4
    16a0:	00090513          	mv	a0,s2
    16a4:	c15fe0ef          	jal	ra,2b8 <_ntoa_long>
    16a8:	f55ff06f          	j	15fc <_vsnprintf+0x480>
    16ac:	04037713          	andi	a4,t1,64
    16b0:	000ca783          	lw	a5,0(s9)
    16b4:	00070663          	beqz	a4,16c0 <_vsnprintf+0x544>
    16b8:	0ff7f793          	zext.b	a5,a5
    16bc:	fbdff06f          	j	1678 <_vsnprintf+0x4fc>
    16c0:	08037713          	andi	a4,t1,128
    16c4:	fa070ae3          	beqz	a4,1678 <_vsnprintf+0x4fc>
    16c8:	01079793          	slli	a5,a5,0x10
    16cc:	4107d793          	srai	a5,a5,0x10
    16d0:	fa9ff06f          	j	1678 <_vsnprintf+0x4fc>
    16d4:	02078a63          	beqz	a5,1708 <_vsnprintf+0x58c>
    16d8:	007c8c93          	addi	s9,s9,7
    16dc:	ff8cfc93          	andi	s9,s9,-8
    16e0:	000ca703          	lw	a4,0(s9)
    16e4:	004ca783          	lw	a5,4(s9)
    16e8:	00080893          	mv	a7,a6
    16ec:	008c8413          	addi	s0,s9,8
    16f0:	00612623          	sw	t1,12(sp)
    16f4:	01512423          	sw	s5,8(sp)
    16f8:	01a12223          	sw	s10,4(sp)
    16fc:	00012023          	sw	zero,0(sp)
    1700:	00000813          	li	a6,0
    1704:	ee5ff06f          	j	15e8 <_vsnprintf+0x46c>
    1708:	10037793          	andi	a5,t1,256
    170c:	004c8413          	addi	s0,s9,4
    1710:	00078e63          	beqz	a5,172c <_vsnprintf+0x5b0>
    1714:	000ca703          	lw	a4,0(s9)
    1718:	00612223          	sw	t1,4(sp)
    171c:	01512023          	sw	s5,0(sp)
    1720:	000d0893          	mv	a7,s10
    1724:	00000793          	li	a5,0
    1728:	f6dff06f          	j	1694 <_vsnprintf+0x518>
    172c:	04037793          	andi	a5,t1,64
    1730:	000ca703          	lw	a4,0(s9)
    1734:	00078663          	beqz	a5,1740 <_vsnprintf+0x5c4>
    1738:	0ff77713          	zext.b	a4,a4
    173c:	fddff06f          	j	1718 <_vsnprintf+0x59c>
    1740:	08037793          	andi	a5,t1,128
    1744:	fc078ae3          	beqz	a5,1718 <_vsnprintf+0x59c>
    1748:	01c12783          	lw	a5,28(sp)
    174c:	00f77733          	and	a4,a4,a5
    1750:	fc9ff06f          	j	1718 <_vsnprintf+0x59c>
    1754:	02036313          	ori	t1,t1,32
    1758:	007c8793          	addi	a5,s9,7
    175c:	ff87f793          	andi	a5,a5,-8
    1760:	0007a703          	lw	a4,0(a5)
    1764:	00878c93          	addi	s9,a5,8
    1768:	0047a783          	lw	a5,4(a5)
    176c:	000a8893          	mv	a7,s5
    1770:	00612023          	sw	t1,0(sp)
    1774:	000d0813          	mv	a6,s10
    1778:	00098693          	mv	a3,s3
    177c:	000d8613          	mv	a2,s11
    1780:	000a0593          	mv	a1,s4
    1784:	00090513          	mv	a0,s2
    1788:	bf8ff0ef          	jal	ra,b80 <_ftoa>
    178c:	00050d93          	mv	s11,a0
    1790:	e75ff06f          	j	1604 <_vsnprintf+0x488>
    1794:	00237413          	andi	s0,t1,2
    1798:	00100b93          	li	s7,1
    179c:	04041463          	bnez	s0,17e4 <_vsnprintf+0x668>
    17a0:	00000d13          	li	s10,0
    17a4:	0140006f          	j	17b8 <_vsnprintf+0x63c>
    17a8:	00098693          	mv	a3,s3
    17ac:	000a0593          	mv	a1,s4
    17b0:	02000513          	li	a0,32
    17b4:	000900e7          	jalr	s2
    17b8:	01bd0633          	add	a2,s10,s11
    17bc:	001d0d13          	addi	s10,s10,1
    17c0:	ff5d64e3          	bltu	s10,s5,17a8 <_vsnprintf+0x62c>
    17c4:	00000793          	li	a5,0
    17c8:	000a8463          	beqz	s5,17d0 <_vsnprintf+0x654>
    17cc:	fffa8793          	addi	a5,s5,-1
    17d0:	00fd8db3          	add	s11,s11,a5
    17d4:	00200793          	li	a5,2
    17d8:	000a8463          	beqz	s5,17e0 <_vsnprintf+0x664>
    17dc:	001a8793          	addi	a5,s5,1
    17e0:	00078b93          	mv	s7,a5
    17e4:	000cc503          	lbu	a0,0(s9)
    17e8:	00098693          	mv	a3,s3
    17ec:	000d8613          	mv	a2,s11
    17f0:	000a0593          	mv	a1,s4
    17f4:	004c8d13          	addi	s10,s9,4
    17f8:	001d8b13          	addi	s6,s11,1
    17fc:	000900e7          	jalr	s2
    1800:	04040063          	beqz	s0,1840 <_vsnprintf+0x6c4>
    1804:	000b8413          	mv	s0,s7
    1808:	000b0613          	mv	a2,s6
    180c:	0200006f          	j	182c <_vsnprintf+0x6b0>
    1810:	00098693          	mv	a3,s3
    1814:	000a0593          	mv	a1,s4
    1818:	02000513          	li	a0,32
    181c:	00160c93          	addi	s9,a2,1
    1820:	000900e7          	jalr	s2
    1824:	00140413          	addi	s0,s0,1
    1828:	000c8613          	mv	a2,s9
    182c:	ff5462e3          	bltu	s0,s5,1810 <_vsnprintf+0x694>
    1830:	00000693          	li	a3,0
    1834:	017ae463          	bltu	s5,s7,183c <_vsnprintf+0x6c0>
    1838:	417a86b3          	sub	a3,s5,s7
    183c:	00db0b33          	add	s6,s6,a3
    1840:	000d0c93          	mv	s9,s10
    1844:	000b0d93          	mv	s11,s6
    1848:	dbdff06f          	j	1604 <_vsnprintf+0x488>
    184c:	004c8793          	addi	a5,s9,4
    1850:	00f12c23          	sw	a5,24(sp)
    1854:	000cab83          	lw	s7,0(s9)
    1858:	000d0793          	mv	a5,s10
    185c:	000d1463          	bnez	s10,1864 <_vsnprintf+0x6e8>
    1860:	fff00793          	li	a5,-1
    1864:	00fb8733          	add	a4,s7,a5
    1868:	000b8793          	mv	a5,s7
    186c:	0007c683          	lbu	a3,0(a5)
    1870:	00068463          	beqz	a3,1878 <_vsnprintf+0x6fc>
    1874:	02f71663          	bne	a4,a5,18a0 <_vsnprintf+0x724>
    1878:	40037c93          	andi	s9,t1,1024
    187c:	41778b33          	sub	s6,a5,s7
    1880:	000c8663          	beqz	s9,188c <_vsnprintf+0x710>
    1884:	016d7463          	bgeu	s10,s6,188c <_vsnprintf+0x710>
    1888:	000d0b13          	mv	s6,s10
    188c:	00237413          	andi	s0,t1,2
    1890:	06041063          	bnez	s0,18f0 <_vsnprintf+0x774>
    1894:	000d8613          	mv	a2,s11
    1898:	41bb0333          	sub	t1,s6,s11
    189c:	0340006f          	j	18d0 <_vsnprintf+0x754>
    18a0:	00178793          	addi	a5,a5,1
    18a4:	fc9ff06f          	j	186c <_vsnprintf+0x6f0>
    18a8:	00160713          	addi	a4,a2,1
    18ac:	02612623          	sw	t1,44(sp)
    18b0:	02e12423          	sw	a4,40(sp)
    18b4:	00098693          	mv	a3,s3
    18b8:	000a0593          	mv	a1,s4
    18bc:	02000513          	li	a0,32
    18c0:	000900e7          	jalr	s2
    18c4:	02812703          	lw	a4,40(sp)
    18c8:	02c12303          	lw	t1,44(sp)
    18cc:	00070613          	mv	a2,a4
    18d0:	00660733          	add	a4,a2,t1
    18d4:	fd576ae3          	bltu	a4,s5,18a8 <_vsnprintf+0x72c>
    18d8:	00000713          	li	a4,0
    18dc:	016ae463          	bltu	s5,s6,18e4 <_vsnprintf+0x768>
    18e0:	416a8733          	sub	a4,s5,s6
    18e4:	001b0793          	addi	a5,s6,1
    18e8:	00ed8db3          	add	s11,s11,a4
    18ec:	00f70b33          	add	s6,a4,a5
    18f0:	000d8713          	mv	a4,s11
    18f4:	0280006f          	j	191c <_vsnprintf+0x7a0>
    18f8:	00068d13          	mv	s10,a3
    18fc:	00170313          	addi	t1,a4,1
    1900:	02612423          	sw	t1,40(sp)
    1904:	00070613          	mv	a2,a4
    1908:	00098693          	mv	a3,s3
    190c:	000a0593          	mv	a1,s4
    1910:	000900e7          	jalr	s2
    1914:	02812303          	lw	t1,40(sp)
    1918:	00030713          	mv	a4,t1
    191c:	41b706b3          	sub	a3,a4,s11
    1920:	00db86b3          	add	a3,s7,a3
    1924:	0006c503          	lbu	a0,0(a3)
    1928:	00050863          	beqz	a0,1938 <_vsnprintf+0x7bc>
    192c:	fc0c88e3          	beqz	s9,18fc <_vsnprintf+0x780>
    1930:	fffd0693          	addi	a3,s10,-1
    1934:	fc0d12e3          	bnez	s10,18f8 <_vsnprintf+0x77c>
    1938:	04040463          	beqz	s0,1980 <_vsnprintf+0x804>
    193c:	00070613          	mv	a2,a4
    1940:	40eb0433          	sub	s0,s6,a4
    1944:	0240006f          	j	1968 <_vsnprintf+0x7ec>
    1948:	02e12423          	sw	a4,40(sp)
    194c:	00098693          	mv	a3,s3
    1950:	000a0593          	mv	a1,s4
    1954:	02000513          	li	a0,32
    1958:	00160c93          	addi	s9,a2,1
    195c:	000900e7          	jalr	s2
    1960:	02812703          	lw	a4,40(sp)
    1964:	000c8613          	mv	a2,s9
    1968:	008606b3          	add	a3,a2,s0
    196c:	fd56eee3          	bltu	a3,s5,1948 <_vsnprintf+0x7cc>
    1970:	00000693          	li	a3,0
    1974:	016ae463          	bltu	s5,s6,197c <_vsnprintf+0x800>
    1978:	416a86b3          	sub	a3,s5,s6
    197c:	00d70733          	add	a4,a4,a3
    1980:	01812c83          	lw	s9,24(sp)
    1984:	00070d93          	mv	s11,a4
    1988:	c7dff06f          	j	1604 <_vsnprintf+0x488>
    198c:	00800813          	li	a6,8
    1990:	bc5ff06f          	j	1554 <_vsnprintf+0x3d8>

00001994 <printf_init>:
    1994:	000057b7          	lui	a5,0x5
    1998:	4ea7a423          	sw	a0,1256(a5) # 54e8 <g_uart_putc_ptr>
    199c:	00008067          	ret

000019a0 <printf_>:
    19a0:	fc010113          	addi	sp,sp,-64
    19a4:	02d12623          	sw	a3,44(sp)
    19a8:	00050693          	mv	a3,a0
    19ac:	00001537          	lui	a0,0x1
    19b0:	02b12223          	sw	a1,36(sp)
    19b4:	02c12423          	sw	a2,40(sp)
    19b8:	02e12823          	sw	a4,48(sp)
    19bc:	00810593          	addi	a1,sp,8
    19c0:	02410713          	addi	a4,sp,36
    19c4:	fff00613          	li	a2,-1
    19c8:	15450513          	addi	a0,a0,340 # 1154 <_out_char>
    19cc:	00112e23          	sw	ra,28(sp)
    19d0:	02f12a23          	sw	a5,52(sp)
    19d4:	03012c23          	sw	a6,56(sp)
    19d8:	03112e23          	sw	a7,60(sp)
    19dc:	00e12623          	sw	a4,12(sp)
    19e0:	f9cff0ef          	jal	ra,117c <_vsnprintf>
    19e4:	01c12083          	lw	ra,28(sp)
    19e8:	04010113          	addi	sp,sp,64
    19ec:	00008067          	ret

000019f0 <sprintf_>:
    19f0:	fc010113          	addi	sp,sp,-64
    19f4:	02d12623          	sw	a3,44(sp)
    19f8:	00058693          	mv	a3,a1
    19fc:	00050593          	mv	a1,a0
    1a00:	02c12423          	sw	a2,40(sp)
    1a04:	02e12823          	sw	a4,48(sp)
    1a08:	fff00613          	li	a2,-1
    1a0c:	02810713          	addi	a4,sp,40
    1a10:	01000513          	li	a0,16
    1a14:	00112e23          	sw	ra,28(sp)
    1a18:	02f12a23          	sw	a5,52(sp)
    1a1c:	03012c23          	sw	a6,56(sp)
    1a20:	03112e23          	sw	a7,60(sp)
    1a24:	00e12623          	sw	a4,12(sp)
    1a28:	f54ff0ef          	jal	ra,117c <_vsnprintf>
    1a2c:	01c12083          	lw	ra,28(sp)
    1a30:	04010113          	addi	sp,sp,64
    1a34:	00008067          	ret

00001a38 <snprintf_>:
    1a38:	fc010113          	addi	sp,sp,-64
    1a3c:	02d12623          	sw	a3,44(sp)
    1a40:	00060693          	mv	a3,a2
    1a44:	00058613          	mv	a2,a1
    1a48:	00050593          	mv	a1,a0
    1a4c:	02e12823          	sw	a4,48(sp)
    1a50:	01000513          	li	a0,16
    1a54:	02c10713          	addi	a4,sp,44
    1a58:	00112e23          	sw	ra,28(sp)
    1a5c:	02f12a23          	sw	a5,52(sp)
    1a60:	03012c23          	sw	a6,56(sp)
    1a64:	03112e23          	sw	a7,60(sp)
    1a68:	00e12623          	sw	a4,12(sp)
    1a6c:	f10ff0ef          	jal	ra,117c <_vsnprintf>
    1a70:	01c12083          	lw	ra,28(sp)
    1a74:	04010113          	addi	sp,sp,64
    1a78:	00008067          	ret

00001a7c <vprintf_>:
    1a7c:	fe010113          	addi	sp,sp,-32
    1a80:	00050693          	mv	a3,a0
    1a84:	00001537          	lui	a0,0x1
    1a88:	00058713          	mv	a4,a1
    1a8c:	fff00613          	li	a2,-1
    1a90:	00c10593          	addi	a1,sp,12
    1a94:	15450513          	addi	a0,a0,340 # 1154 <_out_char>
    1a98:	00112e23          	sw	ra,28(sp)
    1a9c:	ee0ff0ef          	jal	ra,117c <_vsnprintf>
    1aa0:	01c12083          	lw	ra,28(sp)
    1aa4:	02010113          	addi	sp,sp,32
    1aa8:	00008067          	ret

00001aac <vsnprintf_>:
    1aac:	00068713          	mv	a4,a3
    1ab0:	00060693          	mv	a3,a2
    1ab4:	00058613          	mv	a2,a1
    1ab8:	00050593          	mv	a1,a0
    1abc:	01000513          	li	a0,16
    1ac0:	ebcff06f          	j	117c <_vsnprintf>

00001ac4 <fctprintf>:
    1ac4:	fc010113          	addi	sp,sp,-64
    1ac8:	00a12423          	sw	a0,8(sp)
    1acc:	00001537          	lui	a0,0x1
    1ad0:	02d12623          	sw	a3,44(sp)
    1ad4:	02e12823          	sw	a4,48(sp)
    1ad8:	00b12623          	sw	a1,12(sp)
    1adc:	02c10713          	addi	a4,sp,44
    1ae0:	00060693          	mv	a3,a2
    1ae4:	00810593          	addi	a1,sp,8
    1ae8:	fff00613          	li	a2,-1
    1aec:	16850513          	addi	a0,a0,360 # 1168 <_out_fct>
    1af0:	00112e23          	sw	ra,28(sp)
    1af4:	02f12a23          	sw	a5,52(sp)
    1af8:	03012c23          	sw	a6,56(sp)
    1afc:	03112e23          	sw	a7,60(sp)
    1b00:	00e12223          	sw	a4,4(sp)
    1b04:	e78ff0ef          	jal	ra,117c <_vsnprintf>
    1b08:	01c12083          	lw	ra,28(sp)
    1b0c:	04010113          	addi	sp,sp,64
    1b10:	00008067          	ret

00001b14 <uart_txwait>:
    1b14:	ff010113          	addi	sp,sp,-16
    1b18:	00112623          	sw	ra,12(sp)
    1b1c:	3a0000ef          	jal	ra,1ebc <IOB_UART_GET_TXREADY>
    1b20:	fe050ee3          	beqz	a0,1b1c <uart_txwait+0x8>
    1b24:	00c12083          	lw	ra,12(sp)
    1b28:	01010113          	addi	sp,sp,16
    1b2c:	00008067          	ret

00001b30 <uart_putc>:
    1b30:	ff010113          	addi	sp,sp,-16
    1b34:	00812423          	sw	s0,8(sp)
    1b38:	00112623          	sw	ra,12(sp)
    1b3c:	00050413          	mv	s0,a0
    1b40:	37c000ef          	jal	ra,1ebc <IOB_UART_GET_TXREADY>
    1b44:	fe050ee3          	beqz	a0,1b40 <uart_putc+0x10>
    1b48:	00040513          	mv	a0,s0
    1b4c:	00812403          	lw	s0,8(sp)
    1b50:	00c12083          	lw	ra,12(sp)
    1b54:	01010113          	addi	sp,sp,16
    1b58:	3340006f          	j	1e8c <IOB_UART_SET_TXDATA>

00001b5c <uart_rxwait>:
    1b5c:	ff010113          	addi	sp,sp,-16
    1b60:	00112623          	sw	ra,12(sp)
    1b64:	368000ef          	jal	ra,1ecc <IOB_UART_GET_RXREADY>
    1b68:	fe050ee3          	beqz	a0,1b64 <uart_rxwait+0x8>
    1b6c:	00c12083          	lw	ra,12(sp)
    1b70:	01010113          	addi	sp,sp,16
    1b74:	00008067          	ret

00001b78 <uart_getc>:
    1b78:	ff010113          	addi	sp,sp,-16
    1b7c:	00112623          	sw	ra,12(sp)
    1b80:	34c000ef          	jal	ra,1ecc <IOB_UART_GET_RXREADY>
    1b84:	fe050ee3          	beqz	a0,1b80 <uart_getc+0x8>
    1b88:	00c12083          	lw	ra,12(sp)
    1b8c:	01010113          	addi	sp,sp,16
    1b90:	34c0006f          	j	1edc <IOB_UART_GET_RXDATA>

00001b94 <uart_init>:
    1b94:	ff010113          	addi	sp,sp,-16
    1b98:	00112623          	sw	ra,12(sp)
    1b9c:	00812423          	sw	s0,8(sp)
    1ba0:	00058413          	mv	s0,a1
    1ba4:	2bc000ef          	jal	ra,1e60 <IOB_UART_INIT_BASEADDR>
    1ba8:	00100513          	li	a0,1
    1bac:	2c0000ef          	jal	ra,1e6c <IOB_UART_SET_SOFTRESET>
    1bb0:	00000513          	li	a0,0
    1bb4:	2b8000ef          	jal	ra,1e6c <IOB_UART_SET_SOFTRESET>
    1bb8:	00040513          	mv	a0,s0
    1bbc:	2c0000ef          	jal	ra,1e7c <IOB_UART_SET_DIV>
    1bc0:	00100513          	li	a0,1
    1bc4:	2d8000ef          	jal	ra,1e9c <IOB_UART_SET_TXEN>
    1bc8:	00812403          	lw	s0,8(sp)
    1bcc:	00c12083          	lw	ra,12(sp)
    1bd0:	00100513          	li	a0,1
    1bd4:	01010113          	addi	sp,sp,16
    1bd8:	2d40006f          	j	1eac <IOB_UART_SET_RXEN>

00001bdc <uart_finish>:
    1bdc:	ff010113          	addi	sp,sp,-16
    1be0:	00400513          	li	a0,4
    1be4:	00112623          	sw	ra,12(sp)
    1be8:	f49ff0ef          	jal	ra,1b30 <uart_putc>
    1bec:	00c12083          	lw	ra,12(sp)
    1bf0:	01010113          	addi	sp,sp,16
    1bf4:	f21ff06f          	j	1b14 <uart_txwait>

00001bf8 <uart_puts>:
    1bf8:	ff010113          	addi	sp,sp,-16
    1bfc:	00812423          	sw	s0,8(sp)
    1c00:	00112623          	sw	ra,12(sp)
    1c04:	00050413          	mv	s0,a0
    1c08:	00044503          	lbu	a0,0(s0)
    1c0c:	00051a63          	bnez	a0,1c20 <uart_puts+0x28>
    1c10:	00c12083          	lw	ra,12(sp)
    1c14:	00812403          	lw	s0,8(sp)
    1c18:	01010113          	addi	sp,sp,16
    1c1c:	00008067          	ret
    1c20:	00140413          	addi	s0,s0,1
    1c24:	f0dff0ef          	jal	ra,1b30 <uart_putc>
    1c28:	fe1ff06f          	j	1c08 <uart_puts+0x10>

00001c2c <uart_sendstr>:
    1c2c:	ff010113          	addi	sp,sp,-16
    1c30:	00812423          	sw	s0,8(sp)
    1c34:	00112623          	sw	ra,12(sp)
    1c38:	00050413          	mv	s0,a0
    1c3c:	00044503          	lbu	a0,0(s0)
    1c40:	00140413          	addi	s0,s0,1
    1c44:	eedff0ef          	jal	ra,1b30 <uart_putc>
    1c48:	fff44783          	lbu	a5,-1(s0)
    1c4c:	fe0798e3          	bnez	a5,1c3c <uart_sendstr+0x10>
    1c50:	00c12083          	lw	ra,12(sp)
    1c54:	00812403          	lw	s0,8(sp)
    1c58:	01010113          	addi	sp,sp,16
    1c5c:	00008067          	ret

00001c60 <uart_recvfile>:
    1c60:	fe010113          	addi	sp,sp,-32
    1c64:	01312623          	sw	s3,12(sp)
    1c68:	000059b7          	lui	s3,0x5
    1c6c:	00812c23          	sw	s0,24(sp)
    1c70:	00050413          	mv	s0,a0
    1c74:	50898513          	addi	a0,s3,1288 # 5508 <g_uart_putc_ptr+0x20>
    1c78:	00112e23          	sw	ra,28(sp)
    1c7c:	00912a23          	sw	s1,20(sp)
    1c80:	01212823          	sw	s2,16(sp)
    1c84:	00058913          	mv	s2,a1
    1c88:	f71ff0ef          	jal	ra,1bf8 <uart_puts>
    1c8c:	00005537          	lui	a0,0x5
    1c90:	51450513          	addi	a0,a0,1300 # 5514 <g_uart_putc_ptr+0x2c>
    1c94:	f65ff0ef          	jal	ra,1bf8 <uart_puts>
    1c98:	00800513          	li	a0,8
    1c9c:	e95ff0ef          	jal	ra,1b30 <uart_putc>
    1ca0:	00040513          	mv	a0,s0
    1ca4:	f89ff0ef          	jal	ra,1c2c <uart_sendstr>
    1ca8:	ed1ff0ef          	jal	ra,1b78 <uart_getc>
    1cac:	00050493          	mv	s1,a0
    1cb0:	ec9ff0ef          	jal	ra,1b78 <uart_getc>
    1cb4:	00050413          	mv	s0,a0
    1cb8:	ec1ff0ef          	jal	ra,1b78 <uart_getc>
    1cbc:	01051513          	slli	a0,a0,0x10
    1cc0:	00841413          	slli	s0,s0,0x8
    1cc4:	00a46433          	or	s0,s0,a0
    1cc8:	eb1ff0ef          	jal	ra,1b78 <uart_getc>
    1ccc:	00946433          	or	s0,s0,s1
    1cd0:	01851493          	slli	s1,a0,0x18
    1cd4:	00600513          	li	a0,6
    1cd8:	0084e4b3          	or	s1,s1,s0
    1cdc:	e55ff0ef          	jal	ra,1b30 <uart_putc>
    1ce0:	00000413          	li	s0,0
    1ce4:	02941c63          	bne	s0,s1,1d1c <uart_recvfile+0xbc>
    1ce8:	50898513          	addi	a0,s3,1288
    1cec:	f0dff0ef          	jal	ra,1bf8 <uart_puts>
    1cf0:	00005537          	lui	a0,0x5
    1cf4:	53450513          	addi	a0,a0,1332 # 5534 <g_uart_putc_ptr+0x4c>
    1cf8:	f01ff0ef          	jal	ra,1bf8 <uart_puts>
    1cfc:	01c12083          	lw	ra,28(sp)
    1d00:	00040513          	mv	a0,s0
    1d04:	01812403          	lw	s0,24(sp)
    1d08:	01412483          	lw	s1,20(sp)
    1d0c:	01012903          	lw	s2,16(sp)
    1d10:	00c12983          	lw	s3,12(sp)
    1d14:	02010113          	addi	sp,sp,32
    1d18:	00008067          	ret
    1d1c:	e5dff0ef          	jal	ra,1b78 <uart_getc>
    1d20:	008907b3          	add	a5,s2,s0
    1d24:	00a78023          	sb	a0,0(a5)
    1d28:	00140413          	addi	s0,s0,1
    1d2c:	fb9ff06f          	j	1ce4 <uart_recvfile+0x84>

00001d30 <uart_sendfile>:
    1d30:	fe010113          	addi	sp,sp,-32
    1d34:	01312623          	sw	s3,12(sp)
    1d38:	000059b7          	lui	s3,0x5
    1d3c:	00912a23          	sw	s1,20(sp)
    1d40:	00050493          	mv	s1,a0
    1d44:	50898513          	addi	a0,s3,1288 # 5508 <g_uart_putc_ptr+0x20>
    1d48:	00112e23          	sw	ra,28(sp)
    1d4c:	00812c23          	sw	s0,24(sp)
    1d50:	01212823          	sw	s2,16(sp)
    1d54:	00058413          	mv	s0,a1
    1d58:	00060913          	mv	s2,a2
    1d5c:	e9dff0ef          	jal	ra,1bf8 <uart_puts>
    1d60:	00005537          	lui	a0,0x5
    1d64:	54850513          	addi	a0,a0,1352 # 5548 <g_uart_putc_ptr+0x60>
    1d68:	e91ff0ef          	jal	ra,1bf8 <uart_puts>
    1d6c:	00700513          	li	a0,7
    1d70:	dc1ff0ef          	jal	ra,1b30 <uart_putc>
    1d74:	00048513          	mv	a0,s1
    1d78:	eb5ff0ef          	jal	ra,1c2c <uart_sendstr>
    1d7c:	0ff47513          	zext.b	a0,s0
    1d80:	db1ff0ef          	jal	ra,1b30 <uart_putc>
    1d84:	40845513          	srai	a0,s0,0x8
    1d88:	0ff57513          	zext.b	a0,a0
    1d8c:	da5ff0ef          	jal	ra,1b30 <uart_putc>
    1d90:	41045513          	srai	a0,s0,0x10
    1d94:	0ff57513          	zext.b	a0,a0
    1d98:	d99ff0ef          	jal	ra,1b30 <uart_putc>
    1d9c:	01845513          	srli	a0,s0,0x18
    1da0:	d91ff0ef          	jal	ra,1b30 <uart_putc>
    1da4:	00000493          	li	s1,0
    1da8:	0284c863          	blt	s1,s0,1dd8 <uart_sendfile+0xa8>
    1dac:	50898513          	addi	a0,s3,1288
    1db0:	e49ff0ef          	jal	ra,1bf8 <uart_puts>
    1db4:	01812403          	lw	s0,24(sp)
    1db8:	01c12083          	lw	ra,28(sp)
    1dbc:	01412483          	lw	s1,20(sp)
    1dc0:	01012903          	lw	s2,16(sp)
    1dc4:	00c12983          	lw	s3,12(sp)
    1dc8:	00005537          	lui	a0,0x5
    1dcc:	56450513          	addi	a0,a0,1380 # 5564 <g_uart_putc_ptr+0x7c>
    1dd0:	02010113          	addi	sp,sp,32
    1dd4:	e25ff06f          	j	1bf8 <uart_puts>
    1dd8:	009907b3          	add	a5,s2,s1
    1ddc:	0007c503          	lbu	a0,0(a5)
    1de0:	00148493          	addi	s1,s1,1
    1de4:	d4dff0ef          	jal	ra,1b30 <uart_putc>
    1de8:	fc1ff06f          	j	1da8 <uart_sendfile+0x78>

00001dec <timer_reset>:
    1dec:	ff010113          	addi	sp,sp,-16
    1df0:	00100513          	li	a0,1
    1df4:	00112623          	sw	ra,12(sp)
    1df8:	110000ef          	jal	ra,1f08 <IOB_TIMER_SET_RESET>
    1dfc:	00c12083          	lw	ra,12(sp)
    1e00:	00000513          	li	a0,0
    1e04:	01010113          	addi	sp,sp,16
    1e08:	1000006f          	j	1f08 <IOB_TIMER_SET_RESET>

00001e0c <timer_init>:
    1e0c:	ff010113          	addi	sp,sp,-16
    1e10:	00112623          	sw	ra,12(sp)
    1e14:	0e8000ef          	jal	ra,1efc <IOB_TIMER_INIT_BASEADDR>
    1e18:	fd5ff0ef          	jal	ra,1dec <timer_reset>
    1e1c:	00c12083          	lw	ra,12(sp)
    1e20:	00100513          	li	a0,1
    1e24:	01010113          	addi	sp,sp,16
    1e28:	0f00006f          	j	1f18 <IOB_TIMER_SET_ENABLE>

00001e2c <timer_get_count>:
    1e2c:	fe010113          	addi	sp,sp,-32
    1e30:	00100513          	li	a0,1
    1e34:	00112e23          	sw	ra,28(sp)
    1e38:	0f0000ef          	jal	ra,1f28 <IOB_TIMER_SET_SAMPLE>
    1e3c:	00000513          	li	a0,0
    1e40:	0e8000ef          	jal	ra,1f28 <IOB_TIMER_SET_SAMPLE>
    1e44:	104000ef          	jal	ra,1f48 <IOB_TIMER_GET_DATA_HIGH>
    1e48:	00a12623          	sw	a0,12(sp)
    1e4c:	0ec000ef          	jal	ra,1f38 <IOB_TIMER_GET_DATA_LOW>
    1e50:	01c12083          	lw	ra,28(sp)
    1e54:	00c12583          	lw	a1,12(sp)
    1e58:	02010113          	addi	sp,sp,32
    1e5c:	00008067          	ret

00001e60 <IOB_UART_INIT_BASEADDR>:
    1e60:	000057b7          	lui	a5,0x5
    1e64:	5aa7a623          	sw	a0,1452(a5) # 55ac <base>
    1e68:	00008067          	ret

00001e6c <IOB_UART_SET_SOFTRESET>:
    1e6c:	000057b7          	lui	a5,0x5
    1e70:	5ac7a783          	lw	a5,1452(a5) # 55ac <base>
    1e74:	00a78023          	sb	a0,0(a5)
    1e78:	00008067          	ret

00001e7c <IOB_UART_SET_DIV>:
    1e7c:	000057b7          	lui	a5,0x5
    1e80:	5ac7a783          	lw	a5,1452(a5) # 55ac <base>
    1e84:	00a79123          	sh	a0,2(a5)
    1e88:	00008067          	ret

00001e8c <IOB_UART_SET_TXDATA>:
    1e8c:	000057b7          	lui	a5,0x5
    1e90:	5ac7a783          	lw	a5,1452(a5) # 55ac <base>
    1e94:	00a78223          	sb	a0,4(a5)
    1e98:	00008067          	ret

00001e9c <IOB_UART_SET_TXEN>:
    1e9c:	000057b7          	lui	a5,0x5
    1ea0:	5ac7a783          	lw	a5,1452(a5) # 55ac <base>
    1ea4:	00a782a3          	sb	a0,5(a5)
    1ea8:	00008067          	ret

00001eac <IOB_UART_SET_RXEN>:
    1eac:	000057b7          	lui	a5,0x5
    1eb0:	5ac7a783          	lw	a5,1452(a5) # 55ac <base>
    1eb4:	00a78323          	sb	a0,6(a5)
    1eb8:	00008067          	ret

00001ebc <IOB_UART_GET_TXREADY>:
    1ebc:	000057b7          	lui	a5,0x5
    1ec0:	5ac7a783          	lw	a5,1452(a5) # 55ac <base>
    1ec4:	0007c503          	lbu	a0,0(a5)
    1ec8:	00008067          	ret

00001ecc <IOB_UART_GET_RXREADY>:
    1ecc:	000057b7          	lui	a5,0x5
    1ed0:	5ac7a783          	lw	a5,1452(a5) # 55ac <base>
    1ed4:	0017c503          	lbu	a0,1(a5)
    1ed8:	00008067          	ret

00001edc <IOB_UART_GET_RXDATA>:
    1edc:	000057b7          	lui	a5,0x5
    1ee0:	5ac7a783          	lw	a5,1452(a5) # 55ac <base>
    1ee4:	0047c503          	lbu	a0,4(a5)
    1ee8:	00008067          	ret

00001eec <IOB_UART_GET_VERSION>:
    1eec:	000057b7          	lui	a5,0x5
    1ef0:	5ac7a783          	lw	a5,1452(a5) # 55ac <base>
    1ef4:	0067d503          	lhu	a0,6(a5)
    1ef8:	00008067          	ret

00001efc <IOB_TIMER_INIT_BASEADDR>:
    1efc:	000057b7          	lui	a5,0x5
    1f00:	5ca7a623          	sw	a0,1484(a5) # 55cc <base>
    1f04:	00008067          	ret

00001f08 <IOB_TIMER_SET_RESET>:
    1f08:	000057b7          	lui	a5,0x5
    1f0c:	5cc7a783          	lw	a5,1484(a5) # 55cc <base>
    1f10:	00a78023          	sb	a0,0(a5)
    1f14:	00008067          	ret

00001f18 <IOB_TIMER_SET_ENABLE>:
    1f18:	000057b7          	lui	a5,0x5
    1f1c:	5cc7a783          	lw	a5,1484(a5) # 55cc <base>
    1f20:	00a780a3          	sb	a0,1(a5)
    1f24:	00008067          	ret

00001f28 <IOB_TIMER_SET_SAMPLE>:
    1f28:	000057b7          	lui	a5,0x5
    1f2c:	5cc7a783          	lw	a5,1484(a5) # 55cc <base>
    1f30:	00a78123          	sb	a0,2(a5)
    1f34:	00008067          	ret

00001f38 <IOB_TIMER_GET_DATA_LOW>:
    1f38:	000057b7          	lui	a5,0x5
    1f3c:	5cc7a783          	lw	a5,1484(a5) # 55cc <base>
    1f40:	0047a503          	lw	a0,4(a5)
    1f44:	00008067          	ret

00001f48 <IOB_TIMER_GET_DATA_HIGH>:
    1f48:	000057b7          	lui	a5,0x5
    1f4c:	5cc7a783          	lw	a5,1484(a5) # 55cc <base>
    1f50:	0087a503          	lw	a0,8(a5)
    1f54:	00008067          	ret

00001f58 <IOB_TIMER_GET_VERSION>:
    1f58:	000057b7          	lui	a5,0x5
    1f5c:	5cc7a783          	lw	a5,1484(a5) # 55cc <base>
    1f60:	00c7d503          	lhu	a0,12(a5)
    1f64:	00008067          	ret

00001f68 <__udivdi3>:
    1f68:	fd010113          	addi	sp,sp,-48
    1f6c:	01312e23          	sw	s3,28(sp)
    1f70:	02112623          	sw	ra,44(sp)
    1f74:	02812423          	sw	s0,40(sp)
    1f78:	02912223          	sw	s1,36(sp)
    1f7c:	03212023          	sw	s2,32(sp)
    1f80:	01412c23          	sw	s4,24(sp)
    1f84:	01512a23          	sw	s5,20(sp)
    1f88:	01612823          	sw	s6,16(sp)
    1f8c:	01712623          	sw	s7,12(sp)
    1f90:	01812423          	sw	s8,8(sp)
    1f94:	01912223          	sw	s9,4(sp)
    1f98:	00050993          	mv	s3,a0
    1f9c:	38069463          	bnez	a3,2324 <__udivdi3+0x3bc>
    1fa0:	000057b7          	lui	a5,0x5
    1fa4:	00060a13          	mv	s4,a2
    1fa8:	00050493          	mv	s1,a0
    1fac:	f1c78793          	addi	a5,a5,-228 # 4f1c <__clz_tab>
    1fb0:	12c5f863          	bgeu	a1,a2,20e0 <__udivdi3+0x178>
    1fb4:	00010737          	lui	a4,0x10
    1fb8:	00058913          	mv	s2,a1
    1fbc:	10e67863          	bgeu	a2,a4,20cc <__udivdi3+0x164>
    1fc0:	10063713          	sltiu	a4,a2,256
    1fc4:	00174713          	xori	a4,a4,1
    1fc8:	00371713          	slli	a4,a4,0x3
    1fcc:	00e656b3          	srl	a3,a2,a4
    1fd0:	00d787b3          	add	a5,a5,a3
    1fd4:	0007c783          	lbu	a5,0(a5)
    1fd8:	02000693          	li	a3,32
    1fdc:	00e787b3          	add	a5,a5,a4
    1fe0:	40f68733          	sub	a4,a3,a5
    1fe4:	00f68c63          	beq	a3,a5,1ffc <__udivdi3+0x94>
    1fe8:	00e59933          	sll	s2,a1,a4
    1fec:	00f9d7b3          	srl	a5,s3,a5
    1ff0:	00e61a33          	sll	s4,a2,a4
    1ff4:	0127e933          	or	s2,a5,s2
    1ff8:	00e994b3          	sll	s1,s3,a4
    1ffc:	010a5a93          	srli	s5,s4,0x10
    2000:	000a8593          	mv	a1,s5
    2004:	00090513          	mv	a0,s2
    2008:	010a1b13          	slli	s6,s4,0x10
    200c:	509020ef          	jal	ra,4d14 <__udivsi3>
    2010:	010b5b13          	srli	s6,s6,0x10
    2014:	00050593          	mv	a1,a0
    2018:	00050993          	mv	s3,a0
    201c:	000b0513          	mv	a0,s6
    2020:	4c9020ef          	jal	ra,4ce8 <__mulsi3>
    2024:	00050413          	mv	s0,a0
    2028:	000a8593          	mv	a1,s5
    202c:	00090513          	mv	a0,s2
    2030:	52d020ef          	jal	ra,4d5c <__umodsi3>
    2034:	01051513          	slli	a0,a0,0x10
    2038:	0104d713          	srli	a4,s1,0x10
    203c:	00a76733          	or	a4,a4,a0
    2040:	00098913          	mv	s2,s3
    2044:	00877e63          	bgeu	a4,s0,2060 <__udivdi3+0xf8>
    2048:	01470733          	add	a4,a4,s4
    204c:	fff98913          	addi	s2,s3,-1
    2050:	01476863          	bltu	a4,s4,2060 <__udivdi3+0xf8>
    2054:	00877663          	bgeu	a4,s0,2060 <__udivdi3+0xf8>
    2058:	ffe98913          	addi	s2,s3,-2
    205c:	01470733          	add	a4,a4,s4
    2060:	40870433          	sub	s0,a4,s0
    2064:	000a8593          	mv	a1,s5
    2068:	00040513          	mv	a0,s0
    206c:	4a9020ef          	jal	ra,4d14 <__udivsi3>
    2070:	00050593          	mv	a1,a0
    2074:	00050993          	mv	s3,a0
    2078:	000b0513          	mv	a0,s6
    207c:	46d020ef          	jal	ra,4ce8 <__mulsi3>
    2080:	00050b13          	mv	s6,a0
    2084:	000a8593          	mv	a1,s5
    2088:	00040513          	mv	a0,s0
    208c:	4d1020ef          	jal	ra,4d5c <__umodsi3>
    2090:	01049713          	slli	a4,s1,0x10
    2094:	01051513          	slli	a0,a0,0x10
    2098:	01075713          	srli	a4,a4,0x10
    209c:	00a76733          	or	a4,a4,a0
    20a0:	00098693          	mv	a3,s3
    20a4:	01677c63          	bgeu	a4,s6,20bc <__udivdi3+0x154>
    20a8:	00ea0733          	add	a4,s4,a4
    20ac:	fff98693          	addi	a3,s3,-1
    20b0:	01476663          	bltu	a4,s4,20bc <__udivdi3+0x154>
    20b4:	01677463          	bgeu	a4,s6,20bc <__udivdi3+0x154>
    20b8:	ffe98693          	addi	a3,s3,-2
    20bc:	01091793          	slli	a5,s2,0x10
    20c0:	00d7e7b3          	or	a5,a5,a3
    20c4:	00000913          	li	s2,0
    20c8:	1200006f          	j	21e8 <__udivdi3+0x280>
    20cc:	010006b7          	lui	a3,0x1000
    20d0:	01000713          	li	a4,16
    20d4:	eed66ce3          	bltu	a2,a3,1fcc <__udivdi3+0x64>
    20d8:	01800713          	li	a4,24
    20dc:	ef1ff06f          	j	1fcc <__udivdi3+0x64>
    20e0:	00061463          	bnez	a2,20e8 <__udivdi3+0x180>
    20e4:	00100073          	ebreak
    20e8:	00010737          	lui	a4,0x10
    20ec:	12e67c63          	bgeu	a2,a4,2224 <__udivdi3+0x2bc>
    20f0:	10063713          	sltiu	a4,a2,256
    20f4:	00174713          	xori	a4,a4,1
    20f8:	00371713          	slli	a4,a4,0x3
    20fc:	00e656b3          	srl	a3,a2,a4
    2100:	00d787b3          	add	a5,a5,a3
    2104:	0007c783          	lbu	a5,0(a5)
    2108:	02000693          	li	a3,32
    210c:	00e787b3          	add	a5,a5,a4
    2110:	40f68733          	sub	a4,a3,a5
    2114:	12f69263          	bne	a3,a5,2238 <__udivdi3+0x2d0>
    2118:	40c589b3          	sub	s3,a1,a2
    211c:	00100913          	li	s2,1
    2120:	010a5b13          	srli	s6,s4,0x10
    2124:	000b0593          	mv	a1,s6
    2128:	00098513          	mv	a0,s3
    212c:	010a1b93          	slli	s7,s4,0x10
    2130:	3e5020ef          	jal	ra,4d14 <__udivsi3>
    2134:	010bdb93          	srli	s7,s7,0x10
    2138:	00050593          	mv	a1,a0
    213c:	00050c13          	mv	s8,a0
    2140:	000b8513          	mv	a0,s7
    2144:	3a5020ef          	jal	ra,4ce8 <__mulsi3>
    2148:	00050a93          	mv	s5,a0
    214c:	000b0593          	mv	a1,s6
    2150:	00098513          	mv	a0,s3
    2154:	409020ef          	jal	ra,4d5c <__umodsi3>
    2158:	01051513          	slli	a0,a0,0x10
    215c:	0104d713          	srli	a4,s1,0x10
    2160:	00a76733          	or	a4,a4,a0
    2164:	000c0993          	mv	s3,s8
    2168:	01577e63          	bgeu	a4,s5,2184 <__udivdi3+0x21c>
    216c:	01470733          	add	a4,a4,s4
    2170:	fffc0993          	addi	s3,s8,-1
    2174:	01476863          	bltu	a4,s4,2184 <__udivdi3+0x21c>
    2178:	01577663          	bgeu	a4,s5,2184 <__udivdi3+0x21c>
    217c:	ffec0993          	addi	s3,s8,-2
    2180:	01470733          	add	a4,a4,s4
    2184:	41570433          	sub	s0,a4,s5
    2188:	000b0593          	mv	a1,s6
    218c:	00040513          	mv	a0,s0
    2190:	385020ef          	jal	ra,4d14 <__udivsi3>
    2194:	00050593          	mv	a1,a0
    2198:	00050a93          	mv	s5,a0
    219c:	000b8513          	mv	a0,s7
    21a0:	349020ef          	jal	ra,4ce8 <__mulsi3>
    21a4:	00050b93          	mv	s7,a0
    21a8:	000b0593          	mv	a1,s6
    21ac:	00040513          	mv	a0,s0
    21b0:	3ad020ef          	jal	ra,4d5c <__umodsi3>
    21b4:	01049713          	slli	a4,s1,0x10
    21b8:	01051513          	slli	a0,a0,0x10
    21bc:	01075713          	srli	a4,a4,0x10
    21c0:	00a76733          	or	a4,a4,a0
    21c4:	000a8693          	mv	a3,s5
    21c8:	01777c63          	bgeu	a4,s7,21e0 <__udivdi3+0x278>
    21cc:	00ea0733          	add	a4,s4,a4
    21d0:	fffa8693          	addi	a3,s5,-1
    21d4:	01476663          	bltu	a4,s4,21e0 <__udivdi3+0x278>
    21d8:	01777463          	bgeu	a4,s7,21e0 <__udivdi3+0x278>
    21dc:	ffea8693          	addi	a3,s5,-2
    21e0:	01099793          	slli	a5,s3,0x10
    21e4:	00d7e7b3          	or	a5,a5,a3
    21e8:	02c12083          	lw	ra,44(sp)
    21ec:	02812403          	lw	s0,40(sp)
    21f0:	02412483          	lw	s1,36(sp)
    21f4:	01c12983          	lw	s3,28(sp)
    21f8:	01812a03          	lw	s4,24(sp)
    21fc:	01412a83          	lw	s5,20(sp)
    2200:	01012b03          	lw	s6,16(sp)
    2204:	00c12b83          	lw	s7,12(sp)
    2208:	00812c03          	lw	s8,8(sp)
    220c:	00412c83          	lw	s9,4(sp)
    2210:	00090593          	mv	a1,s2
    2214:	00078513          	mv	a0,a5
    2218:	02012903          	lw	s2,32(sp)
    221c:	03010113          	addi	sp,sp,48
    2220:	00008067          	ret
    2224:	010006b7          	lui	a3,0x1000
    2228:	01000713          	li	a4,16
    222c:	ecd668e3          	bltu	a2,a3,20fc <__udivdi3+0x194>
    2230:	01800713          	li	a4,24
    2234:	ec9ff06f          	j	20fc <__udivdi3+0x194>
    2238:	00e61a33          	sll	s4,a2,a4
    223c:	00f5d933          	srl	s2,a1,a5
    2240:	010a5b93          	srli	s7,s4,0x10
    2244:	00e595b3          	sll	a1,a1,a4
    2248:	00f9d7b3          	srl	a5,s3,a5
    224c:	00b7eab3          	or	s5,a5,a1
    2250:	00e994b3          	sll	s1,s3,a4
    2254:	000b8593          	mv	a1,s7
    2258:	00090513          	mv	a0,s2
    225c:	010a1993          	slli	s3,s4,0x10
    2260:	2b5020ef          	jal	ra,4d14 <__udivsi3>
    2264:	0109d993          	srli	s3,s3,0x10
    2268:	00050593          	mv	a1,a0
    226c:	00050b13          	mv	s6,a0
    2270:	00098513          	mv	a0,s3
    2274:	275020ef          	jal	ra,4ce8 <__mulsi3>
    2278:	00050413          	mv	s0,a0
    227c:	000b8593          	mv	a1,s7
    2280:	00090513          	mv	a0,s2
    2284:	2d9020ef          	jal	ra,4d5c <__umodsi3>
    2288:	01051513          	slli	a0,a0,0x10
    228c:	010ad713          	srli	a4,s5,0x10
    2290:	00a76733          	or	a4,a4,a0
    2294:	000b0913          	mv	s2,s6
    2298:	00877e63          	bgeu	a4,s0,22b4 <__udivdi3+0x34c>
    229c:	01470733          	add	a4,a4,s4
    22a0:	fffb0913          	addi	s2,s6,-1
    22a4:	01476863          	bltu	a4,s4,22b4 <__udivdi3+0x34c>
    22a8:	00877663          	bgeu	a4,s0,22b4 <__udivdi3+0x34c>
    22ac:	ffeb0913          	addi	s2,s6,-2
    22b0:	01470733          	add	a4,a4,s4
    22b4:	40870433          	sub	s0,a4,s0
    22b8:	000b8593          	mv	a1,s7
    22bc:	00040513          	mv	a0,s0
    22c0:	255020ef          	jal	ra,4d14 <__udivsi3>
    22c4:	00050593          	mv	a1,a0
    22c8:	00050b13          	mv	s6,a0
    22cc:	00098513          	mv	a0,s3
    22d0:	219020ef          	jal	ra,4ce8 <__mulsi3>
    22d4:	00050993          	mv	s3,a0
    22d8:	000b8593          	mv	a1,s7
    22dc:	00040513          	mv	a0,s0
    22e0:	27d020ef          	jal	ra,4d5c <__umodsi3>
    22e4:	010a9793          	slli	a5,s5,0x10
    22e8:	01051513          	slli	a0,a0,0x10
    22ec:	0107d793          	srli	a5,a5,0x10
    22f0:	00a7e7b3          	or	a5,a5,a0
    22f4:	000b0713          	mv	a4,s6
    22f8:	0137fe63          	bgeu	a5,s3,2314 <__udivdi3+0x3ac>
    22fc:	014787b3          	add	a5,a5,s4
    2300:	fffb0713          	addi	a4,s6,-1
    2304:	0147e863          	bltu	a5,s4,2314 <__udivdi3+0x3ac>
    2308:	0137f663          	bgeu	a5,s3,2314 <__udivdi3+0x3ac>
    230c:	ffeb0713          	addi	a4,s6,-2
    2310:	014787b3          	add	a5,a5,s4
    2314:	01091913          	slli	s2,s2,0x10
    2318:	413789b3          	sub	s3,a5,s3
    231c:	00e96933          	or	s2,s2,a4
    2320:	e01ff06f          	j	2120 <__udivdi3+0x1b8>
    2324:	1ed5ec63          	bltu	a1,a3,251c <__udivdi3+0x5b4>
    2328:	000107b7          	lui	a5,0x10
    232c:	04f6f463          	bgeu	a3,a5,2374 <__udivdi3+0x40c>
    2330:	1006b513          	sltiu	a0,a3,256
    2334:	00154513          	xori	a0,a0,1
    2338:	00351513          	slli	a0,a0,0x3
    233c:	000057b7          	lui	a5,0x5
    2340:	00a6d733          	srl	a4,a3,a0
    2344:	f1c78793          	addi	a5,a5,-228 # 4f1c <__clz_tab>
    2348:	00e787b3          	add	a5,a5,a4
    234c:	0007c703          	lbu	a4,0(a5)
    2350:	02000793          	li	a5,32
    2354:	00a70733          	add	a4,a4,a0
    2358:	40e78933          	sub	s2,a5,a4
    235c:	02e79663          	bne	a5,a4,2388 <__udivdi3+0x420>
    2360:	00100793          	li	a5,1
    2364:	e8b6e2e3          	bltu	a3,a1,21e8 <__udivdi3+0x280>
    2368:	00c9b7b3          	sltu	a5,s3,a2
    236c:	0017c793          	xori	a5,a5,1
    2370:	e79ff06f          	j	21e8 <__udivdi3+0x280>
    2374:	010007b7          	lui	a5,0x1000
    2378:	01000513          	li	a0,16
    237c:	fcf6e0e3          	bltu	a3,a5,233c <__udivdi3+0x3d4>
    2380:	01800513          	li	a0,24
    2384:	fb9ff06f          	j	233c <__udivdi3+0x3d4>
    2388:	012696b3          	sll	a3,a3,s2
    238c:	00e65b33          	srl	s6,a2,a4
    2390:	00db6b33          	or	s6,s6,a3
    2394:	00e5da33          	srl	s4,a1,a4
    2398:	010b5c13          	srli	s8,s6,0x10
    239c:	00e9d733          	srl	a4,s3,a4
    23a0:	012595b3          	sll	a1,a1,s2
    23a4:	00b76ab3          	or	s5,a4,a1
    23a8:	000a0513          	mv	a0,s4
    23ac:	000c0593          	mv	a1,s8
    23b0:	010b1b93          	slli	s7,s6,0x10
    23b4:	012614b3          	sll	s1,a2,s2
    23b8:	010bdb93          	srli	s7,s7,0x10
    23bc:	159020ef          	jal	ra,4d14 <__udivsi3>
    23c0:	00050593          	mv	a1,a0
    23c4:	00050c93          	mv	s9,a0
    23c8:	000b8513          	mv	a0,s7
    23cc:	11d020ef          	jal	ra,4ce8 <__mulsi3>
    23d0:	00050413          	mv	s0,a0
    23d4:	000c0593          	mv	a1,s8
    23d8:	000a0513          	mv	a0,s4
    23dc:	181020ef          	jal	ra,4d5c <__umodsi3>
    23e0:	01051513          	slli	a0,a0,0x10
    23e4:	010ad693          	srli	a3,s5,0x10
    23e8:	00a6e6b3          	or	a3,a3,a0
    23ec:	000c8a13          	mv	s4,s9
    23f0:	0086fe63          	bgeu	a3,s0,240c <__udivdi3+0x4a4>
    23f4:	016686b3          	add	a3,a3,s6
    23f8:	fffc8a13          	addi	s4,s9,-1
    23fc:	0166e863          	bltu	a3,s6,240c <__udivdi3+0x4a4>
    2400:	0086f663          	bgeu	a3,s0,240c <__udivdi3+0x4a4>
    2404:	ffec8a13          	addi	s4,s9,-2
    2408:	016686b3          	add	a3,a3,s6
    240c:	40868433          	sub	s0,a3,s0
    2410:	000c0593          	mv	a1,s8
    2414:	00040513          	mv	a0,s0
    2418:	0fd020ef          	jal	ra,4d14 <__udivsi3>
    241c:	00050593          	mv	a1,a0
    2420:	00050c93          	mv	s9,a0
    2424:	000b8513          	mv	a0,s7
    2428:	0c1020ef          	jal	ra,4ce8 <__mulsi3>
    242c:	00050b93          	mv	s7,a0
    2430:	000c0593          	mv	a1,s8
    2434:	00040513          	mv	a0,s0
    2438:	125020ef          	jal	ra,4d5c <__umodsi3>
    243c:	010a9713          	slli	a4,s5,0x10
    2440:	01051513          	slli	a0,a0,0x10
    2444:	01075713          	srli	a4,a4,0x10
    2448:	00a76733          	or	a4,a4,a0
    244c:	000c8693          	mv	a3,s9
    2450:	01777e63          	bgeu	a4,s7,246c <__udivdi3+0x504>
    2454:	01670733          	add	a4,a4,s6
    2458:	fffc8693          	addi	a3,s9,-1
    245c:	01676863          	bltu	a4,s6,246c <__udivdi3+0x504>
    2460:	01777663          	bgeu	a4,s7,246c <__udivdi3+0x504>
    2464:	ffec8693          	addi	a3,s9,-2
    2468:	01670733          	add	a4,a4,s6
    246c:	010a1793          	slli	a5,s4,0x10
    2470:	00010e37          	lui	t3,0x10
    2474:	00d7e7b3          	or	a5,a5,a3
    2478:	fffe0313          	addi	t1,t3,-1 # ffff <_heap_start+0xa0bb>
    247c:	41770833          	sub	a6,a4,s7
    2480:	0067f733          	and	a4,a5,t1
    2484:	0064f333          	and	t1,s1,t1
    2488:	0107de93          	srli	t4,a5,0x10
    248c:	0104d493          	srli	s1,s1,0x10
    2490:	00070513          	mv	a0,a4
    2494:	00030593          	mv	a1,t1
    2498:	051020ef          	jal	ra,4ce8 <__mulsi3>
    249c:	00050893          	mv	a7,a0
    24a0:	00048593          	mv	a1,s1
    24a4:	00070513          	mv	a0,a4
    24a8:	041020ef          	jal	ra,4ce8 <__mulsi3>
    24ac:	00050713          	mv	a4,a0
    24b0:	00030593          	mv	a1,t1
    24b4:	000e8513          	mv	a0,t4
    24b8:	031020ef          	jal	ra,4ce8 <__mulsi3>
    24bc:	00050313          	mv	t1,a0
    24c0:	00048593          	mv	a1,s1
    24c4:	000e8513          	mv	a0,t4
    24c8:	021020ef          	jal	ra,4ce8 <__mulsi3>
    24cc:	00670733          	add	a4,a4,t1
    24d0:	0108d693          	srli	a3,a7,0x10
    24d4:	00d70733          	add	a4,a4,a3
    24d8:	00677463          	bgeu	a4,t1,24e0 <__udivdi3+0x578>
    24dc:	01c50533          	add	a0,a0,t3
    24e0:	01075693          	srli	a3,a4,0x10
    24e4:	00a686b3          	add	a3,a3,a0
    24e8:	02d86663          	bltu	a6,a3,2514 <__udivdi3+0x5ac>
    24ec:	bcd81ce3          	bne	a6,a3,20c4 <__udivdi3+0x15c>
    24f0:	00010637          	lui	a2,0x10
    24f4:	fff60613          	addi	a2,a2,-1 # ffff <_heap_start+0xa0bb>
    24f8:	00c77733          	and	a4,a4,a2
    24fc:	01071713          	slli	a4,a4,0x10
    2500:	00c8f8b3          	and	a7,a7,a2
    2504:	012996b3          	sll	a3,s3,s2
    2508:	01170733          	add	a4,a4,a7
    250c:	00000913          	li	s2,0
    2510:	cce6fce3          	bgeu	a3,a4,21e8 <__udivdi3+0x280>
    2514:	fff78793          	addi	a5,a5,-1 # ffffff <_heap_start+0xffa0bb>
    2518:	badff06f          	j	20c4 <__udivdi3+0x15c>
    251c:	00000913          	li	s2,0
    2520:	00000793          	li	a5,0
    2524:	cc5ff06f          	j	21e8 <__udivdi3+0x280>

00002528 <__umoddi3>:
    2528:	fd010113          	addi	sp,sp,-48
    252c:	02812423          	sw	s0,40(sp)
    2530:	02912223          	sw	s1,36(sp)
    2534:	02112623          	sw	ra,44(sp)
    2538:	03212023          	sw	s2,32(sp)
    253c:	01312e23          	sw	s3,28(sp)
    2540:	01412c23          	sw	s4,24(sp)
    2544:	01512a23          	sw	s5,20(sp)
    2548:	01612823          	sw	s6,16(sp)
    254c:	01712623          	sw	s7,12(sp)
    2550:	01812423          	sw	s8,8(sp)
    2554:	01912223          	sw	s9,4(sp)
    2558:	01a12023          	sw	s10,0(sp)
    255c:	00050413          	mv	s0,a0
    2560:	00058493          	mv	s1,a1
    2564:	24069c63          	bnez	a3,27bc <__umoddi3+0x294>
    2568:	000057b7          	lui	a5,0x5
    256c:	00060a13          	mv	s4,a2
    2570:	f1c78793          	addi	a5,a5,-228 # 4f1c <__clz_tab>
    2574:	12c5fe63          	bgeu	a1,a2,26b0 <__umoddi3+0x188>
    2578:	00010737          	lui	a4,0x10
    257c:	12e67063          	bgeu	a2,a4,269c <__umoddi3+0x174>
    2580:	10063713          	sltiu	a4,a2,256
    2584:	00174713          	xori	a4,a4,1
    2588:	00371713          	slli	a4,a4,0x3
    258c:	00e656b3          	srl	a3,a2,a4
    2590:	00d787b3          	add	a5,a5,a3
    2594:	0007c783          	lbu	a5,0(a5)
    2598:	00e787b3          	add	a5,a5,a4
    259c:	02000713          	li	a4,32
    25a0:	40f70933          	sub	s2,a4,a5
    25a4:	00f70c63          	beq	a4,a5,25bc <__umoddi3+0x94>
    25a8:	012595b3          	sll	a1,a1,s2
    25ac:	00f557b3          	srl	a5,a0,a5
    25b0:	01261a33          	sll	s4,a2,s2
    25b4:	00b7e4b3          	or	s1,a5,a1
    25b8:	01251433          	sll	s0,a0,s2
    25bc:	010a5a93          	srli	s5,s4,0x10
    25c0:	000a8593          	mv	a1,s5
    25c4:	010a1b13          	slli	s6,s4,0x10
    25c8:	00048513          	mv	a0,s1
    25cc:	748020ef          	jal	ra,4d14 <__udivsi3>
    25d0:	010b5b13          	srli	s6,s6,0x10
    25d4:	000b0593          	mv	a1,s6
    25d8:	710020ef          	jal	ra,4ce8 <__mulsi3>
    25dc:	00050993          	mv	s3,a0
    25e0:	000a8593          	mv	a1,s5
    25e4:	00048513          	mv	a0,s1
    25e8:	774020ef          	jal	ra,4d5c <__umodsi3>
    25ec:	01051513          	slli	a0,a0,0x10
    25f0:	01045793          	srli	a5,s0,0x10
    25f4:	00a7e7b3          	or	a5,a5,a0
    25f8:	0137fa63          	bgeu	a5,s3,260c <__umoddi3+0xe4>
    25fc:	014787b3          	add	a5,a5,s4
    2600:	0147e663          	bltu	a5,s4,260c <__umoddi3+0xe4>
    2604:	0137f463          	bgeu	a5,s3,260c <__umoddi3+0xe4>
    2608:	014787b3          	add	a5,a5,s4
    260c:	413784b3          	sub	s1,a5,s3
    2610:	000a8593          	mv	a1,s5
    2614:	00048513          	mv	a0,s1
    2618:	6fc020ef          	jal	ra,4d14 <__udivsi3>
    261c:	000b0593          	mv	a1,s6
    2620:	6c8020ef          	jal	ra,4ce8 <__mulsi3>
    2624:	00050993          	mv	s3,a0
    2628:	000a8593          	mv	a1,s5
    262c:	00048513          	mv	a0,s1
    2630:	72c020ef          	jal	ra,4d5c <__umodsi3>
    2634:	01041413          	slli	s0,s0,0x10
    2638:	01051513          	slli	a0,a0,0x10
    263c:	01045413          	srli	s0,s0,0x10
    2640:	00a46433          	or	s0,s0,a0
    2644:	01347a63          	bgeu	s0,s3,2658 <__umoddi3+0x130>
    2648:	01440433          	add	s0,s0,s4
    264c:	01446663          	bltu	s0,s4,2658 <__umoddi3+0x130>
    2650:	01347463          	bgeu	s0,s3,2658 <__umoddi3+0x130>
    2654:	01440433          	add	s0,s0,s4
    2658:	41340433          	sub	s0,s0,s3
    265c:	01245533          	srl	a0,s0,s2
    2660:	00000593          	li	a1,0
    2664:	02c12083          	lw	ra,44(sp)
    2668:	02812403          	lw	s0,40(sp)
    266c:	02412483          	lw	s1,36(sp)
    2670:	02012903          	lw	s2,32(sp)
    2674:	01c12983          	lw	s3,28(sp)
    2678:	01812a03          	lw	s4,24(sp)
    267c:	01412a83          	lw	s5,20(sp)
    2680:	01012b03          	lw	s6,16(sp)
    2684:	00c12b83          	lw	s7,12(sp)
    2688:	00812c03          	lw	s8,8(sp)
    268c:	00412c83          	lw	s9,4(sp)
    2690:	00012d03          	lw	s10,0(sp)
    2694:	03010113          	addi	sp,sp,48
    2698:	00008067          	ret
    269c:	010006b7          	lui	a3,0x1000
    26a0:	01000713          	li	a4,16
    26a4:	eed664e3          	bltu	a2,a3,258c <__umoddi3+0x64>
    26a8:	01800713          	li	a4,24
    26ac:	ee1ff06f          	j	258c <__umoddi3+0x64>
    26b0:	00061463          	bnez	a2,26b8 <__umoddi3+0x190>
    26b4:	00100073          	ebreak
    26b8:	00010737          	lui	a4,0x10
    26bc:	0ee67663          	bgeu	a2,a4,27a8 <__umoddi3+0x280>
    26c0:	10063713          	sltiu	a4,a2,256
    26c4:	00174713          	xori	a4,a4,1
    26c8:	00371713          	slli	a4,a4,0x3
    26cc:	00e656b3          	srl	a3,a2,a4
    26d0:	00d787b3          	add	a5,a5,a3
    26d4:	0007c783          	lbu	a5,0(a5)
    26d8:	40c584b3          	sub	s1,a1,a2
    26dc:	00e787b3          	add	a5,a5,a4
    26e0:	02000713          	li	a4,32
    26e4:	40f70933          	sub	s2,a4,a5
    26e8:	ecf70ae3          	beq	a4,a5,25bc <__umoddi3+0x94>
    26ec:	01261a33          	sll	s4,a2,s2
    26f0:	00f5dbb3          	srl	s7,a1,a5
    26f4:	010a5b13          	srli	s6,s4,0x10
    26f8:	00f557b3          	srl	a5,a0,a5
    26fc:	012595b3          	sll	a1,a1,s2
    2700:	00b7e9b3          	or	s3,a5,a1
    2704:	01251433          	sll	s0,a0,s2
    2708:	000b0593          	mv	a1,s6
    270c:	010a1a93          	slli	s5,s4,0x10
    2710:	000b8513          	mv	a0,s7
    2714:	600020ef          	jal	ra,4d14 <__udivsi3>
    2718:	010ada93          	srli	s5,s5,0x10
    271c:	000a8593          	mv	a1,s5
    2720:	5c8020ef          	jal	ra,4ce8 <__mulsi3>
    2724:	00050493          	mv	s1,a0
    2728:	000b0593          	mv	a1,s6
    272c:	000b8513          	mv	a0,s7
    2730:	62c020ef          	jal	ra,4d5c <__umodsi3>
    2734:	01051513          	slli	a0,a0,0x10
    2738:	0109d713          	srli	a4,s3,0x10
    273c:	00a76733          	or	a4,a4,a0
    2740:	00977a63          	bgeu	a4,s1,2754 <__umoddi3+0x22c>
    2744:	01470733          	add	a4,a4,s4
    2748:	01476663          	bltu	a4,s4,2754 <__umoddi3+0x22c>
    274c:	00977463          	bgeu	a4,s1,2754 <__umoddi3+0x22c>
    2750:	01470733          	add	a4,a4,s4
    2754:	409704b3          	sub	s1,a4,s1
    2758:	000b0593          	mv	a1,s6
    275c:	00048513          	mv	a0,s1
    2760:	5b4020ef          	jal	ra,4d14 <__udivsi3>
    2764:	000a8593          	mv	a1,s5
    2768:	580020ef          	jal	ra,4ce8 <__mulsi3>
    276c:	00050a93          	mv	s5,a0
    2770:	000b0593          	mv	a1,s6
    2774:	00048513          	mv	a0,s1
    2778:	5e4020ef          	jal	ra,4d5c <__umodsi3>
    277c:	01099793          	slli	a5,s3,0x10
    2780:	01051513          	slli	a0,a0,0x10
    2784:	0107d793          	srli	a5,a5,0x10
    2788:	00a7e7b3          	or	a5,a5,a0
    278c:	0157fa63          	bgeu	a5,s5,27a0 <__umoddi3+0x278>
    2790:	014787b3          	add	a5,a5,s4
    2794:	0147e663          	bltu	a5,s4,27a0 <__umoddi3+0x278>
    2798:	0157f463          	bgeu	a5,s5,27a0 <__umoddi3+0x278>
    279c:	014787b3          	add	a5,a5,s4
    27a0:	415784b3          	sub	s1,a5,s5
    27a4:	e19ff06f          	j	25bc <__umoddi3+0x94>
    27a8:	010006b7          	lui	a3,0x1000
    27ac:	01000713          	li	a4,16
    27b0:	f0d66ee3          	bltu	a2,a3,26cc <__umoddi3+0x1a4>
    27b4:	01800713          	li	a4,24
    27b8:	f15ff06f          	j	26cc <__umoddi3+0x1a4>
    27bc:	ead5e4e3          	bltu	a1,a3,2664 <__umoddi3+0x13c>
    27c0:	000107b7          	lui	a5,0x10
    27c4:	04f6fe63          	bgeu	a3,a5,2820 <__umoddi3+0x2f8>
    27c8:	1006b793          	sltiu	a5,a3,256
    27cc:	0017c793          	xori	a5,a5,1
    27d0:	00379793          	slli	a5,a5,0x3
    27d4:	00005737          	lui	a4,0x5
    27d8:	00f6d833          	srl	a6,a3,a5
    27dc:	f1c70713          	addi	a4,a4,-228 # 4f1c <__clz_tab>
    27e0:	01070733          	add	a4,a4,a6
    27e4:	00074983          	lbu	s3,0(a4)
    27e8:	00f989b3          	add	s3,s3,a5
    27ec:	02000793          	li	a5,32
    27f0:	41378933          	sub	s2,a5,s3
    27f4:	05379063          	bne	a5,s3,2834 <__umoddi3+0x30c>
    27f8:	00b6e463          	bltu	a3,a1,2800 <__umoddi3+0x2d8>
    27fc:	00c56c63          	bltu	a0,a2,2814 <__umoddi3+0x2ec>
    2800:	40c50633          	sub	a2,a0,a2
    2804:	40d586b3          	sub	a3,a1,a3
    2808:	00c535b3          	sltu	a1,a0,a2
    280c:	40b684b3          	sub	s1,a3,a1
    2810:	00060413          	mv	s0,a2
    2814:	00040513          	mv	a0,s0
    2818:	00048593          	mv	a1,s1
    281c:	e49ff06f          	j	2664 <__umoddi3+0x13c>
    2820:	01000737          	lui	a4,0x1000
    2824:	01000793          	li	a5,16
    2828:	fae6e6e3          	bltu	a3,a4,27d4 <__umoddi3+0x2ac>
    282c:	01800793          	li	a5,24
    2830:	fa5ff06f          	j	27d4 <__umoddi3+0x2ac>
    2834:	012696b3          	sll	a3,a3,s2
    2838:	01365b33          	srl	s6,a2,s3
    283c:	00db6b33          	or	s6,s6,a3
    2840:	0135d4b3          	srl	s1,a1,s3
    2844:	01355a33          	srl	s4,a0,s3
    2848:	012595b3          	sll	a1,a1,s2
    284c:	010b5c93          	srli	s9,s6,0x10
    2850:	00ba6a33          	or	s4,s4,a1
    2854:	01251ab3          	sll	s5,a0,s2
    2858:	000c8593          	mv	a1,s9
    285c:	00048513          	mv	a0,s1
    2860:	010b1c13          	slli	s8,s6,0x10
    2864:	01261bb3          	sll	s7,a2,s2
    2868:	010c5c13          	srli	s8,s8,0x10
    286c:	4a8020ef          	jal	ra,4d14 <__udivsi3>
    2870:	00050593          	mv	a1,a0
    2874:	00050d13          	mv	s10,a0
    2878:	000c0513          	mv	a0,s8
    287c:	46c020ef          	jal	ra,4ce8 <__mulsi3>
    2880:	00050413          	mv	s0,a0
    2884:	000c8593          	mv	a1,s9
    2888:	00048513          	mv	a0,s1
    288c:	4d0020ef          	jal	ra,4d5c <__umodsi3>
    2890:	01051513          	slli	a0,a0,0x10
    2894:	010a5793          	srli	a5,s4,0x10
    2898:	00a7e7b3          	or	a5,a5,a0
    289c:	000d0493          	mv	s1,s10
    28a0:	0087fe63          	bgeu	a5,s0,28bc <__umoddi3+0x394>
    28a4:	016787b3          	add	a5,a5,s6
    28a8:	fffd0493          	addi	s1,s10,-1
    28ac:	0167e863          	bltu	a5,s6,28bc <__umoddi3+0x394>
    28b0:	0087f663          	bgeu	a5,s0,28bc <__umoddi3+0x394>
    28b4:	ffed0493          	addi	s1,s10,-2
    28b8:	016787b3          	add	a5,a5,s6
    28bc:	40878433          	sub	s0,a5,s0
    28c0:	000c8593          	mv	a1,s9
    28c4:	00040513          	mv	a0,s0
    28c8:	44c020ef          	jal	ra,4d14 <__udivsi3>
    28cc:	00050593          	mv	a1,a0
    28d0:	00050d13          	mv	s10,a0
    28d4:	000c0513          	mv	a0,s8
    28d8:	410020ef          	jal	ra,4ce8 <__mulsi3>
    28dc:	000c8593          	mv	a1,s9
    28e0:	00050c13          	mv	s8,a0
    28e4:	00040513          	mv	a0,s0
    28e8:	474020ef          	jal	ra,4d5c <__umodsi3>
    28ec:	010a1593          	slli	a1,s4,0x10
    28f0:	01051513          	slli	a0,a0,0x10
    28f4:	0105d593          	srli	a1,a1,0x10
    28f8:	00a5e5b3          	or	a1,a1,a0
    28fc:	000d0793          	mv	a5,s10
    2900:	0185fe63          	bgeu	a1,s8,291c <__umoddi3+0x3f4>
    2904:	016585b3          	add	a1,a1,s6
    2908:	fffd0793          	addi	a5,s10,-1
    290c:	0165e863          	bltu	a1,s6,291c <__umoddi3+0x3f4>
    2910:	0185f663          	bgeu	a1,s8,291c <__umoddi3+0x3f4>
    2914:	ffed0793          	addi	a5,s10,-2
    2918:	016585b3          	add	a1,a1,s6
    291c:	00010eb7          	lui	t4,0x10
    2920:	01049493          	slli	s1,s1,0x10
    2924:	00f4e4b3          	or	s1,s1,a5
    2928:	fffe8793          	addi	a5,t4,-1 # ffff <_heap_start+0xa0bb>
    292c:	00f4f8b3          	and	a7,s1,a5
    2930:	00fbf7b3          	and	a5,s7,a5
    2934:	41858733          	sub	a4,a1,s8
    2938:	0104d493          	srli	s1,s1,0x10
    293c:	010bde13          	srli	t3,s7,0x10
    2940:	00088513          	mv	a0,a7
    2944:	00078593          	mv	a1,a5
    2948:	3a0020ef          	jal	ra,4ce8 <__mulsi3>
    294c:	00050813          	mv	a6,a0
    2950:	000e0593          	mv	a1,t3
    2954:	00088513          	mv	a0,a7
    2958:	390020ef          	jal	ra,4ce8 <__mulsi3>
    295c:	00050893          	mv	a7,a0
    2960:	00078593          	mv	a1,a5
    2964:	00048513          	mv	a0,s1
    2968:	380020ef          	jal	ra,4ce8 <__mulsi3>
    296c:	00050313          	mv	t1,a0
    2970:	000e0593          	mv	a1,t3
    2974:	00048513          	mv	a0,s1
    2978:	370020ef          	jal	ra,4ce8 <__mulsi3>
    297c:	01085793          	srli	a5,a6,0x10
    2980:	006888b3          	add	a7,a7,t1
    2984:	011787b3          	add	a5,a5,a7
    2988:	00050613          	mv	a2,a0
    298c:	0067f463          	bgeu	a5,t1,2994 <__umoddi3+0x46c>
    2990:	01d50633          	add	a2,a0,t4
    2994:	0107d693          	srli	a3,a5,0x10
    2998:	00c686b3          	add	a3,a3,a2
    299c:	00010637          	lui	a2,0x10
    29a0:	fff60613          	addi	a2,a2,-1 # ffff <_heap_start+0xa0bb>
    29a4:	00c7f7b3          	and	a5,a5,a2
    29a8:	01079793          	slli	a5,a5,0x10
    29ac:	00c87833          	and	a6,a6,a2
    29b0:	010787b3          	add	a5,a5,a6
    29b4:	00d76663          	bltu	a4,a3,29c0 <__umoddi3+0x498>
    29b8:	00d71e63          	bne	a4,a3,29d4 <__umoddi3+0x4ac>
    29bc:	00fafc63          	bgeu	s5,a5,29d4 <__umoddi3+0x4ac>
    29c0:	41778633          	sub	a2,a5,s7
    29c4:	00c7b7b3          	sltu	a5,a5,a2
    29c8:	016787b3          	add	a5,a5,s6
    29cc:	40f686b3          	sub	a3,a3,a5
    29d0:	00060793          	mv	a5,a2
    29d4:	40fa87b3          	sub	a5,s5,a5
    29d8:	00fabab3          	sltu	s5,s5,a5
    29dc:	40d705b3          	sub	a1,a4,a3
    29e0:	415585b3          	sub	a1,a1,s5
    29e4:	013599b3          	sll	s3,a1,s3
    29e8:	0127d7b3          	srl	a5,a5,s2
    29ec:	00f9e533          	or	a0,s3,a5
    29f0:	0125d5b3          	srl	a1,a1,s2
    29f4:	c71ff06f          	j	2664 <__umoddi3+0x13c>

000029f8 <__adddf3>:
    29f8:	00100837          	lui	a6,0x100
    29fc:	fff80813          	addi	a6,a6,-1 # fffff <_heap_start+0xfa0bb>
    2a00:	fe010113          	addi	sp,sp,-32
    2a04:	00b878b3          	and	a7,a6,a1
    2a08:	0145d713          	srli	a4,a1,0x14
    2a0c:	01d55793          	srli	a5,a0,0x1d
    2a10:	00d87833          	and	a6,a6,a3
    2a14:	00812c23          	sw	s0,24(sp)
    2a18:	7ff77413          	andi	s0,a4,2047
    2a1c:	00389713          	slli	a4,a7,0x3
    2a20:	0146d893          	srli	a7,a3,0x14
    2a24:	00381813          	slli	a6,a6,0x3
    2a28:	00912a23          	sw	s1,20(sp)
    2a2c:	00e7e7b3          	or	a5,a5,a4
    2a30:	7ff8f893          	andi	a7,a7,2047
    2a34:	01d65713          	srli	a4,a2,0x1d
    2a38:	00112e23          	sw	ra,28(sp)
    2a3c:	01212823          	sw	s2,16(sp)
    2a40:	01312623          	sw	s3,12(sp)
    2a44:	01f5d493          	srli	s1,a1,0x1f
    2a48:	01f6d693          	srli	a3,a3,0x1f
    2a4c:	01076733          	or	a4,a4,a6
    2a50:	00351513          	slli	a0,a0,0x3
    2a54:	00361613          	slli	a2,a2,0x3
    2a58:	41140833          	sub	a6,s0,a7
    2a5c:	2cd49863          	bne	s1,a3,2d2c <__adddf3+0x334>
    2a60:	13005063          	blez	a6,2b80 <__adddf3+0x188>
    2a64:	04089063          	bnez	a7,2aa4 <__adddf3+0xac>
    2a68:	00c766b3          	or	a3,a4,a2
    2a6c:	70068e63          	beqz	a3,3188 <__adddf3+0x790>
    2a70:	fff80593          	addi	a1,a6,-1
    2a74:	02059063          	bnez	a1,2a94 <__adddf3+0x9c>
    2a78:	00c50633          	add	a2,a0,a2
    2a7c:	00e78733          	add	a4,a5,a4
    2a80:	00a637b3          	sltu	a5,a2,a0
    2a84:	00f707b3          	add	a5,a4,a5
    2a88:	00060513          	mv	a0,a2
    2a8c:	00100413          	li	s0,1
    2a90:	0700006f          	j	2b00 <__adddf3+0x108>
    2a94:	7ff00693          	li	a3,2047
    2a98:	02d81063          	bne	a6,a3,2ab8 <__adddf3+0xc0>
    2a9c:	7ff00413          	li	s0,2047
    2aa0:	2140006f          	j	2cb4 <__adddf3+0x2bc>
    2aa4:	7ff00693          	li	a3,2047
    2aa8:	20d40663          	beq	s0,a3,2cb4 <__adddf3+0x2bc>
    2aac:	008006b7          	lui	a3,0x800
    2ab0:	00d76733          	or	a4,a4,a3
    2ab4:	00080593          	mv	a1,a6
    2ab8:	03800693          	li	a3,56
    2abc:	0ab6cc63          	blt	a3,a1,2b74 <__adddf3+0x17c>
    2ac0:	01f00693          	li	a3,31
    2ac4:	06b6ce63          	blt	a3,a1,2b40 <__adddf3+0x148>
    2ac8:	02000813          	li	a6,32
    2acc:	40b80833          	sub	a6,a6,a1
    2ad0:	010716b3          	sll	a3,a4,a6
    2ad4:	00b658b3          	srl	a7,a2,a1
    2ad8:	01061833          	sll	a6,a2,a6
    2adc:	0116e6b3          	or	a3,a3,a7
    2ae0:	01003833          	snez	a6,a6
    2ae4:	0106e6b3          	or	a3,a3,a6
    2ae8:	00b755b3          	srl	a1,a4,a1
    2aec:	00a686b3          	add	a3,a3,a0
    2af0:	00f585b3          	add	a1,a1,a5
    2af4:	00a6b7b3          	sltu	a5,a3,a0
    2af8:	00f587b3          	add	a5,a1,a5
    2afc:	00068513          	mv	a0,a3
    2b00:	00800737          	lui	a4,0x800
    2b04:	00e7f733          	and	a4,a5,a4
    2b08:	1a070663          	beqz	a4,2cb4 <__adddf3+0x2bc>
    2b0c:	00140413          	addi	s0,s0,1
    2b10:	7ff00713          	li	a4,2047
    2b14:	5ce40a63          	beq	s0,a4,30e8 <__adddf3+0x6f0>
    2b18:	ff800737          	lui	a4,0xff800
    2b1c:	fff70713          	addi	a4,a4,-1 # ff7fffff <_heap_start+0xff7fa0bb>
    2b20:	00e7f7b3          	and	a5,a5,a4
    2b24:	00155713          	srli	a4,a0,0x1
    2b28:	00157513          	andi	a0,a0,1
    2b2c:	00a76733          	or	a4,a4,a0
    2b30:	01f79513          	slli	a0,a5,0x1f
    2b34:	00e56533          	or	a0,a0,a4
    2b38:	0017d793          	srli	a5,a5,0x1
    2b3c:	1780006f          	j	2cb4 <__adddf3+0x2bc>
    2b40:	fe058693          	addi	a3,a1,-32
    2b44:	02000893          	li	a7,32
    2b48:	00d756b3          	srl	a3,a4,a3
    2b4c:	00000813          	li	a6,0
    2b50:	01158863          	beq	a1,a7,2b60 <__adddf3+0x168>
    2b54:	04000813          	li	a6,64
    2b58:	40b80833          	sub	a6,a6,a1
    2b5c:	01071833          	sll	a6,a4,a6
    2b60:	00c86833          	or	a6,a6,a2
    2b64:	01003833          	snez	a6,a6
    2b68:	0106e6b3          	or	a3,a3,a6
    2b6c:	00000593          	li	a1,0
    2b70:	f7dff06f          	j	2aec <__adddf3+0xf4>
    2b74:	00c766b3          	or	a3,a4,a2
    2b78:	00d036b3          	snez	a3,a3
    2b7c:	ff1ff06f          	j	2b6c <__adddf3+0x174>
    2b80:	0e080263          	beqz	a6,2c64 <__adddf3+0x26c>
    2b84:	408885b3          	sub	a1,a7,s0
    2b88:	02041e63          	bnez	s0,2bc4 <__adddf3+0x1cc>
    2b8c:	00a7e6b3          	or	a3,a5,a0
    2b90:	52068c63          	beqz	a3,30c8 <__adddf3+0x6d0>
    2b94:	fff58693          	addi	a3,a1,-1
    2b98:	00069c63          	bnez	a3,2bb0 <__adddf3+0x1b8>
    2b9c:	00c50533          	add	a0,a0,a2
    2ba0:	00e78733          	add	a4,a5,a4
    2ba4:	00c53633          	sltu	a2,a0,a2
    2ba8:	00c707b3          	add	a5,a4,a2
    2bac:	ee1ff06f          	j	2a8c <__adddf3+0x94>
    2bb0:	7ff00813          	li	a6,2047
    2bb4:	03059263          	bne	a1,a6,2bd8 <__adddf3+0x1e0>
    2bb8:	00070793          	mv	a5,a4
    2bbc:	00060513          	mv	a0,a2
    2bc0:	eddff06f          	j	2a9c <__adddf3+0xa4>
    2bc4:	7ff00693          	li	a3,2047
    2bc8:	fed888e3          	beq	a7,a3,2bb8 <__adddf3+0x1c0>
    2bcc:	008006b7          	lui	a3,0x800
    2bd0:	00d7e7b3          	or	a5,a5,a3
    2bd4:	00058693          	mv	a3,a1
    2bd8:	03800593          	li	a1,56
    2bdc:	06d5ce63          	blt	a1,a3,2c58 <__adddf3+0x260>
    2be0:	01f00593          	li	a1,31
    2be4:	04d5c063          	blt	a1,a3,2c24 <__adddf3+0x22c>
    2be8:	02000813          	li	a6,32
    2bec:	40d80833          	sub	a6,a6,a3
    2bf0:	010795b3          	sll	a1,a5,a6
    2bf4:	00d55333          	srl	t1,a0,a3
    2bf8:	01051833          	sll	a6,a0,a6
    2bfc:	0065e5b3          	or	a1,a1,t1
    2c00:	01003833          	snez	a6,a6
    2c04:	0105e5b3          	or	a1,a1,a6
    2c08:	00d7d6b3          	srl	a3,a5,a3
    2c0c:	00c58533          	add	a0,a1,a2
    2c10:	00e686b3          	add	a3,a3,a4
    2c14:	00c53633          	sltu	a2,a0,a2
    2c18:	00c687b3          	add	a5,a3,a2
    2c1c:	00088413          	mv	s0,a7
    2c20:	ee1ff06f          	j	2b00 <__adddf3+0x108>
    2c24:	fe068593          	addi	a1,a3,-32 # 7fffe0 <_heap_start+0x7fa09c>
    2c28:	02000313          	li	t1,32
    2c2c:	00b7d5b3          	srl	a1,a5,a1
    2c30:	00000813          	li	a6,0
    2c34:	00668863          	beq	a3,t1,2c44 <__adddf3+0x24c>
    2c38:	04000813          	li	a6,64
    2c3c:	40d80833          	sub	a6,a6,a3
    2c40:	01079833          	sll	a6,a5,a6
    2c44:	00a86833          	or	a6,a6,a0
    2c48:	01003833          	snez	a6,a6
    2c4c:	0105e5b3          	or	a1,a1,a6
    2c50:	00000693          	li	a3,0
    2c54:	fb9ff06f          	j	2c0c <__adddf3+0x214>
    2c58:	00a7e5b3          	or	a1,a5,a0
    2c5c:	00b035b3          	snez	a1,a1
    2c60:	ff1ff06f          	j	2c50 <__adddf3+0x258>
    2c64:	00140693          	addi	a3,s0,1
    2c68:	7fe6f593          	andi	a1,a3,2046
    2c6c:	08059863          	bnez	a1,2cfc <__adddf3+0x304>
    2c70:	00a7e6b3          	or	a3,a5,a0
    2c74:	06041463          	bnez	s0,2cdc <__adddf3+0x2e4>
    2c78:	46068063          	beqz	a3,30d8 <__adddf3+0x6e0>
    2c7c:	00c766b3          	or	a3,a4,a2
    2c80:	02068a63          	beqz	a3,2cb4 <__adddf3+0x2bc>
    2c84:	00c50633          	add	a2,a0,a2
    2c88:	00e78733          	add	a4,a5,a4
    2c8c:	00a637b3          	sltu	a5,a2,a0
    2c90:	00f707b3          	add	a5,a4,a5
    2c94:	00800737          	lui	a4,0x800
    2c98:	00e7f733          	and	a4,a5,a4
    2c9c:	00060513          	mv	a0,a2
    2ca0:	00070a63          	beqz	a4,2cb4 <__adddf3+0x2bc>
    2ca4:	ff800737          	lui	a4,0xff800
    2ca8:	fff70713          	addi	a4,a4,-1 # ff7fffff <_heap_start+0xff7fa0bb>
    2cac:	00e7f7b3          	and	a5,a5,a4
    2cb0:	00100413          	li	s0,1
    2cb4:	00757713          	andi	a4,a0,7
    2cb8:	42070c63          	beqz	a4,30f0 <__adddf3+0x6f8>
    2cbc:	00f57713          	andi	a4,a0,15
    2cc0:	00400693          	li	a3,4
    2cc4:	42d70663          	beq	a4,a3,30f0 <__adddf3+0x6f8>
    2cc8:	00450713          	addi	a4,a0,4
    2ccc:	00a73533          	sltu	a0,a4,a0
    2cd0:	00a787b3          	add	a5,a5,a0
    2cd4:	00070513          	mv	a0,a4
    2cd8:	4180006f          	j	30f0 <__adddf3+0x6f8>
    2cdc:	ec068ee3          	beqz	a3,2bb8 <__adddf3+0x1c0>
    2ce0:	00c76733          	or	a4,a4,a2
    2ce4:	da070ce3          	beqz	a4,2a9c <__adddf3+0xa4>
    2ce8:	00000493          	li	s1,0
    2cec:	004007b7          	lui	a5,0x400
    2cf0:	00000513          	li	a0,0
    2cf4:	7ff00413          	li	s0,2047
    2cf8:	3f80006f          	j	30f0 <__adddf3+0x6f8>
    2cfc:	7ff00593          	li	a1,2047
    2d00:	3eb68263          	beq	a3,a1,30e4 <__adddf3+0x6ec>
    2d04:	00c50633          	add	a2,a0,a2
    2d08:	00a63533          	sltu	a0,a2,a0
    2d0c:	00e78733          	add	a4,a5,a4
    2d10:	00a70733          	add	a4,a4,a0
    2d14:	01f71513          	slli	a0,a4,0x1f
    2d18:	00165613          	srli	a2,a2,0x1
    2d1c:	00c56533          	or	a0,a0,a2
    2d20:	00175793          	srli	a5,a4,0x1
    2d24:	00068413          	mv	s0,a3
    2d28:	f8dff06f          	j	2cb4 <__adddf3+0x2bc>
    2d2c:	0f005c63          	blez	a6,2e24 <__adddf3+0x42c>
    2d30:	08089e63          	bnez	a7,2dcc <__adddf3+0x3d4>
    2d34:	00c766b3          	or	a3,a4,a2
    2d38:	44068863          	beqz	a3,3188 <__adddf3+0x790>
    2d3c:	fff80593          	addi	a1,a6,-1
    2d40:	02059063          	bnez	a1,2d60 <__adddf3+0x368>
    2d44:	40c50633          	sub	a2,a0,a2
    2d48:	40e78733          	sub	a4,a5,a4
    2d4c:	00c537b3          	sltu	a5,a0,a2
    2d50:	40f707b3          	sub	a5,a4,a5
    2d54:	00060513          	mv	a0,a2
    2d58:	00100413          	li	s0,1
    2d5c:	0540006f          	j	2db0 <__adddf3+0x3b8>
    2d60:	7ff00693          	li	a3,2047
    2d64:	d2d80ce3          	beq	a6,a3,2a9c <__adddf3+0xa4>
    2d68:	03800693          	li	a3,56
    2d6c:	0ab6c663          	blt	a3,a1,2e18 <__adddf3+0x420>
    2d70:	01f00693          	li	a3,31
    2d74:	06b6c863          	blt	a3,a1,2de4 <__adddf3+0x3ec>
    2d78:	02000813          	li	a6,32
    2d7c:	40b80833          	sub	a6,a6,a1
    2d80:	010716b3          	sll	a3,a4,a6
    2d84:	00b658b3          	srl	a7,a2,a1
    2d88:	01061833          	sll	a6,a2,a6
    2d8c:	0116e6b3          	or	a3,a3,a7
    2d90:	01003833          	snez	a6,a6
    2d94:	0106e6b3          	or	a3,a3,a6
    2d98:	00b755b3          	srl	a1,a4,a1
    2d9c:	40d506b3          	sub	a3,a0,a3
    2da0:	40b785b3          	sub	a1,a5,a1
    2da4:	00d537b3          	sltu	a5,a0,a3
    2da8:	40f587b3          	sub	a5,a1,a5
    2dac:	00068513          	mv	a0,a3
    2db0:	00800937          	lui	s2,0x800
    2db4:	0127f733          	and	a4,a5,s2
    2db8:	ee070ee3          	beqz	a4,2cb4 <__adddf3+0x2bc>
    2dbc:	fff90913          	addi	s2,s2,-1 # 7fffff <_heap_start+0x7fa0bb>
    2dc0:	0127f933          	and	s2,a5,s2
    2dc4:	00050993          	mv	s3,a0
    2dc8:	2140006f          	j	2fdc <__adddf3+0x5e4>
    2dcc:	7ff00693          	li	a3,2047
    2dd0:	eed402e3          	beq	s0,a3,2cb4 <__adddf3+0x2bc>
    2dd4:	008006b7          	lui	a3,0x800
    2dd8:	00d76733          	or	a4,a4,a3
    2ddc:	00080593          	mv	a1,a6
    2de0:	f89ff06f          	j	2d68 <__adddf3+0x370>
    2de4:	fe058693          	addi	a3,a1,-32
    2de8:	02000893          	li	a7,32
    2dec:	00d756b3          	srl	a3,a4,a3
    2df0:	00000813          	li	a6,0
    2df4:	01158863          	beq	a1,a7,2e04 <__adddf3+0x40c>
    2df8:	04000813          	li	a6,64
    2dfc:	40b80833          	sub	a6,a6,a1
    2e00:	01071833          	sll	a6,a4,a6
    2e04:	00c86833          	or	a6,a6,a2
    2e08:	01003833          	snez	a6,a6
    2e0c:	0106e6b3          	or	a3,a3,a6
    2e10:	00000593          	li	a1,0
    2e14:	f89ff06f          	j	2d9c <__adddf3+0x3a4>
    2e18:	00c766b3          	or	a3,a4,a2
    2e1c:	00d036b3          	snez	a3,a3
    2e20:	ff1ff06f          	j	2e10 <__adddf3+0x418>
    2e24:	0e080863          	beqz	a6,2f14 <__adddf3+0x51c>
    2e28:	40888833          	sub	a6,a7,s0
    2e2c:	04041263          	bnez	s0,2e70 <__adddf3+0x478>
    2e30:	00a7e5b3          	or	a1,a5,a0
    2e34:	34058e63          	beqz	a1,3190 <__adddf3+0x798>
    2e38:	fff80593          	addi	a1,a6,-1
    2e3c:	00059e63          	bnez	a1,2e58 <__adddf3+0x460>
    2e40:	40a60533          	sub	a0,a2,a0
    2e44:	40f70733          	sub	a4,a4,a5
    2e48:	00a63633          	sltu	a2,a2,a0
    2e4c:	40c707b3          	sub	a5,a4,a2
    2e50:	00068493          	mv	s1,a3
    2e54:	f05ff06f          	j	2d58 <__adddf3+0x360>
    2e58:	7ff00313          	li	t1,2047
    2e5c:	02681463          	bne	a6,t1,2e84 <__adddf3+0x48c>
    2e60:	00070793          	mv	a5,a4
    2e64:	00060513          	mv	a0,a2
    2e68:	7ff00413          	li	s0,2047
    2e6c:	0d00006f          	j	2f3c <__adddf3+0x544>
    2e70:	7ff00593          	li	a1,2047
    2e74:	feb886e3          	beq	a7,a1,2e60 <__adddf3+0x468>
    2e78:	008005b7          	lui	a1,0x800
    2e7c:	00b7e7b3          	or	a5,a5,a1
    2e80:	00080593          	mv	a1,a6
    2e84:	03800813          	li	a6,56
    2e88:	08b84063          	blt	a6,a1,2f08 <__adddf3+0x510>
    2e8c:	01f00813          	li	a6,31
    2e90:	04b84263          	blt	a6,a1,2ed4 <__adddf3+0x4dc>
    2e94:	02000313          	li	t1,32
    2e98:	40b30333          	sub	t1,t1,a1
    2e9c:	00b55e33          	srl	t3,a0,a1
    2ea0:	00679833          	sll	a6,a5,t1
    2ea4:	00651333          	sll	t1,a0,t1
    2ea8:	01c86833          	or	a6,a6,t3
    2eac:	00603333          	snez	t1,t1
    2eb0:	00686533          	or	a0,a6,t1
    2eb4:	00b7d5b3          	srl	a1,a5,a1
    2eb8:	40a60533          	sub	a0,a2,a0
    2ebc:	40b705b3          	sub	a1,a4,a1
    2ec0:	00a63633          	sltu	a2,a2,a0
    2ec4:	40c587b3          	sub	a5,a1,a2
    2ec8:	00088413          	mv	s0,a7
    2ecc:	00068493          	mv	s1,a3
    2ed0:	ee1ff06f          	j	2db0 <__adddf3+0x3b8>
    2ed4:	fe058813          	addi	a6,a1,-32 # 7fffe0 <_heap_start+0x7fa09c>
    2ed8:	02000e13          	li	t3,32
    2edc:	0107d833          	srl	a6,a5,a6
    2ee0:	00000313          	li	t1,0
    2ee4:	01c58863          	beq	a1,t3,2ef4 <__adddf3+0x4fc>
    2ee8:	04000313          	li	t1,64
    2eec:	40b30333          	sub	t1,t1,a1
    2ef0:	00679333          	sll	t1,a5,t1
    2ef4:	00a36333          	or	t1,t1,a0
    2ef8:	00603333          	snez	t1,t1
    2efc:	00686533          	or	a0,a6,t1
    2f00:	00000593          	li	a1,0
    2f04:	fb5ff06f          	j	2eb8 <__adddf3+0x4c0>
    2f08:	00a7e533          	or	a0,a5,a0
    2f0c:	00a03533          	snez	a0,a0
    2f10:	ff1ff06f          	j	2f00 <__adddf3+0x508>
    2f14:	00140593          	addi	a1,s0,1
    2f18:	7fe5f593          	andi	a1,a1,2046
    2f1c:	08059863          	bnez	a1,2fac <__adddf3+0x5b4>
    2f20:	00a7e833          	or	a6,a5,a0
    2f24:	00c765b3          	or	a1,a4,a2
    2f28:	06041263          	bnez	s0,2f8c <__adddf3+0x594>
    2f2c:	00081c63          	bnez	a6,2f44 <__adddf3+0x54c>
    2f30:	26058863          	beqz	a1,31a0 <__adddf3+0x7a8>
    2f34:	00070793          	mv	a5,a4
    2f38:	00060513          	mv	a0,a2
    2f3c:	00068493          	mv	s1,a3
    2f40:	d75ff06f          	j	2cb4 <__adddf3+0x2bc>
    2f44:	d60588e3          	beqz	a1,2cb4 <__adddf3+0x2bc>
    2f48:	40c50833          	sub	a6,a0,a2
    2f4c:	010538b3          	sltu	a7,a0,a6
    2f50:	40e785b3          	sub	a1,a5,a4
    2f54:	411585b3          	sub	a1,a1,a7
    2f58:	008008b7          	lui	a7,0x800
    2f5c:	0115f8b3          	and	a7,a1,a7
    2f60:	00088c63          	beqz	a7,2f78 <__adddf3+0x580>
    2f64:	40a60533          	sub	a0,a2,a0
    2f68:	40f70733          	sub	a4,a4,a5
    2f6c:	00a63633          	sltu	a2,a2,a0
    2f70:	40c707b3          	sub	a5,a4,a2
    2f74:	fc9ff06f          	j	2f3c <__adddf3+0x544>
    2f78:	00b86533          	or	a0,a6,a1
    2f7c:	22050a63          	beqz	a0,31b0 <__adddf3+0x7b8>
    2f80:	00058793          	mv	a5,a1
    2f84:	00080513          	mv	a0,a6
    2f88:	d2dff06f          	j	2cb4 <__adddf3+0x2bc>
    2f8c:	00081c63          	bnez	a6,2fa4 <__adddf3+0x5ac>
    2f90:	22058463          	beqz	a1,31b8 <__adddf3+0x7c0>
    2f94:	00070793          	mv	a5,a4
    2f98:	00060513          	mv	a0,a2
    2f9c:	00068493          	mv	s1,a3
    2fa0:	afdff06f          	j	2a9c <__adddf3+0xa4>
    2fa4:	ae058ce3          	beqz	a1,2a9c <__adddf3+0xa4>
    2fa8:	d41ff06f          	j	2ce8 <__adddf3+0x2f0>
    2fac:	40c509b3          	sub	s3,a0,a2
    2fb0:	013535b3          	sltu	a1,a0,s3
    2fb4:	40e78933          	sub	s2,a5,a4
    2fb8:	40b90933          	sub	s2,s2,a1
    2fbc:	008005b7          	lui	a1,0x800
    2fc0:	00b975b3          	and	a1,s2,a1
    2fc4:	08058463          	beqz	a1,304c <__adddf3+0x654>
    2fc8:	40a609b3          	sub	s3,a2,a0
    2fcc:	40f70933          	sub	s2,a4,a5
    2fd0:	01363633          	sltu	a2,a2,s3
    2fd4:	40c90933          	sub	s2,s2,a2
    2fd8:	00068493          	mv	s1,a3
    2fdc:	08090263          	beqz	s2,3060 <__adddf3+0x668>
    2fe0:	00090513          	mv	a0,s2
    2fe4:	5dd010ef          	jal	ra,4dc0 <__clzsi2>
    2fe8:	ff850713          	addi	a4,a0,-8
    2fec:	01f00793          	li	a5,31
    2ff0:	08e7c063          	blt	a5,a4,3070 <__adddf3+0x678>
    2ff4:	02000793          	li	a5,32
    2ff8:	40e787b3          	sub	a5,a5,a4
    2ffc:	00e91933          	sll	s2,s2,a4
    3000:	00f9d7b3          	srl	a5,s3,a5
    3004:	0127e7b3          	or	a5,a5,s2
    3008:	00e99533          	sll	a0,s3,a4
    300c:	0a874463          	blt	a4,s0,30b4 <__adddf3+0x6bc>
    3010:	40870733          	sub	a4,a4,s0
    3014:	00170613          	addi	a2,a4,1
    3018:	01f00693          	li	a3,31
    301c:	06c6c263          	blt	a3,a2,3080 <__adddf3+0x688>
    3020:	02000713          	li	a4,32
    3024:	40c70733          	sub	a4,a4,a2
    3028:	00e796b3          	sll	a3,a5,a4
    302c:	00c555b3          	srl	a1,a0,a2
    3030:	00e51733          	sll	a4,a0,a4
    3034:	00b6e6b3          	or	a3,a3,a1
    3038:	00e03733          	snez	a4,a4
    303c:	00e6e533          	or	a0,a3,a4
    3040:	00c7d7b3          	srl	a5,a5,a2
    3044:	00000413          	li	s0,0
    3048:	c6dff06f          	j	2cb4 <__adddf3+0x2bc>
    304c:	0129e533          	or	a0,s3,s2
    3050:	f80516e3          	bnez	a0,2fdc <__adddf3+0x5e4>
    3054:	00000793          	li	a5,0
    3058:	00000413          	li	s0,0
    305c:	14c0006f          	j	31a8 <__adddf3+0x7b0>
    3060:	00098513          	mv	a0,s3
    3064:	55d010ef          	jal	ra,4dc0 <__clzsi2>
    3068:	02050513          	addi	a0,a0,32
    306c:	f7dff06f          	j	2fe8 <__adddf3+0x5f0>
    3070:	fd850793          	addi	a5,a0,-40
    3074:	00f997b3          	sll	a5,s3,a5
    3078:	00000513          	li	a0,0
    307c:	f91ff06f          	j	300c <__adddf3+0x614>
    3080:	fe170713          	addi	a4,a4,-31
    3084:	02000593          	li	a1,32
    3088:	00e7d733          	srl	a4,a5,a4
    308c:	00000693          	li	a3,0
    3090:	00b60863          	beq	a2,a1,30a0 <__adddf3+0x6a8>
    3094:	04000693          	li	a3,64
    3098:	40c686b3          	sub	a3,a3,a2
    309c:	00d796b3          	sll	a3,a5,a3
    30a0:	00d566b3          	or	a3,a0,a3
    30a4:	00d036b3          	snez	a3,a3
    30a8:	00d76533          	or	a0,a4,a3
    30ac:	00000793          	li	a5,0
    30b0:	f95ff06f          	j	3044 <__adddf3+0x64c>
    30b4:	40e40433          	sub	s0,s0,a4
    30b8:	ff800737          	lui	a4,0xff800
    30bc:	fff70713          	addi	a4,a4,-1 # ff7fffff <_heap_start+0xff7fa0bb>
    30c0:	00e7f7b3          	and	a5,a5,a4
    30c4:	bf1ff06f          	j	2cb4 <__adddf3+0x2bc>
    30c8:	00070793          	mv	a5,a4
    30cc:	00060513          	mv	a0,a2
    30d0:	00058413          	mv	s0,a1
    30d4:	be1ff06f          	j	2cb4 <__adddf3+0x2bc>
    30d8:	00070793          	mv	a5,a4
    30dc:	00060513          	mv	a0,a2
    30e0:	bd5ff06f          	j	2cb4 <__adddf3+0x2bc>
    30e4:	7ff00413          	li	s0,2047
    30e8:	00000793          	li	a5,0
    30ec:	00000513          	li	a0,0
    30f0:	00800737          	lui	a4,0x800
    30f4:	00e7f733          	and	a4,a5,a4
    30f8:	00070e63          	beqz	a4,3114 <__adddf3+0x71c>
    30fc:	00140413          	addi	s0,s0,1
    3100:	7ff00713          	li	a4,2047
    3104:	0ce40263          	beq	s0,a4,31c8 <__adddf3+0x7d0>
    3108:	ff800737          	lui	a4,0xff800
    310c:	fff70713          	addi	a4,a4,-1 # ff7fffff <_heap_start+0xff7fa0bb>
    3110:	00e7f7b3          	and	a5,a5,a4
    3114:	01d79693          	slli	a3,a5,0x1d
    3118:	00355513          	srli	a0,a0,0x3
    311c:	7ff00713          	li	a4,2047
    3120:	00a6e6b3          	or	a3,a3,a0
    3124:	0037d793          	srli	a5,a5,0x3
    3128:	00e41e63          	bne	s0,a4,3144 <__adddf3+0x74c>
    312c:	00f6e6b3          	or	a3,a3,a5
    3130:	00000793          	li	a5,0
    3134:	00068863          	beqz	a3,3144 <__adddf3+0x74c>
    3138:	000807b7          	lui	a5,0x80
    313c:	00000693          	li	a3,0
    3140:	00000493          	li	s1,0
    3144:	01441713          	slli	a4,s0,0x14
    3148:	7ff00637          	lui	a2,0x7ff00
    314c:	00c79793          	slli	a5,a5,0xc
    3150:	01c12083          	lw	ra,28(sp)
    3154:	01812403          	lw	s0,24(sp)
    3158:	00c77733          	and	a4,a4,a2
    315c:	00c7d793          	srli	a5,a5,0xc
    3160:	01f49493          	slli	s1,s1,0x1f
    3164:	00f767b3          	or	a5,a4,a5
    3168:	0097e733          	or	a4,a5,s1
    316c:	01012903          	lw	s2,16(sp)
    3170:	01412483          	lw	s1,20(sp)
    3174:	00c12983          	lw	s3,12(sp)
    3178:	00068513          	mv	a0,a3
    317c:	00070593          	mv	a1,a4
    3180:	02010113          	addi	sp,sp,32
    3184:	00008067          	ret
    3188:	00080413          	mv	s0,a6
    318c:	b29ff06f          	j	2cb4 <__adddf3+0x2bc>
    3190:	00070793          	mv	a5,a4
    3194:	00060513          	mv	a0,a2
    3198:	00080413          	mv	s0,a6
    319c:	da1ff06f          	j	2f3c <__adddf3+0x544>
    31a0:	00000793          	li	a5,0
    31a4:	00000513          	li	a0,0
    31a8:	00000493          	li	s1,0
    31ac:	f45ff06f          	j	30f0 <__adddf3+0x6f8>
    31b0:	00000793          	li	a5,0
    31b4:	ff5ff06f          	j	31a8 <__adddf3+0x7b0>
    31b8:	00000513          	li	a0,0
    31bc:	00000493          	li	s1,0
    31c0:	004007b7          	lui	a5,0x400
    31c4:	b31ff06f          	j	2cf4 <__adddf3+0x2fc>
    31c8:	00000793          	li	a5,0
    31cc:	00000513          	li	a0,0
    31d0:	f45ff06f          	j	3114 <__adddf3+0x71c>

000031d4 <__divdf3>:
    31d4:	fb010113          	addi	sp,sp,-80
    31d8:	05212023          	sw	s2,64(sp)
    31dc:	0145d913          	srli	s2,a1,0x14
    31e0:	04912223          	sw	s1,68(sp)
    31e4:	03312e23          	sw	s3,60(sp)
    31e8:	03412c23          	sw	s4,56(sp)
    31ec:	03512a23          	sw	s5,52(sp)
    31f0:	03612823          	sw	s6,48(sp)
    31f4:	00c59493          	slli	s1,a1,0xc
    31f8:	04112623          	sw	ra,76(sp)
    31fc:	04812423          	sw	s0,72(sp)
    3200:	03712623          	sw	s7,44(sp)
    3204:	03812423          	sw	s8,40(sp)
    3208:	03912223          	sw	s9,36(sp)
    320c:	03a12023          	sw	s10,32(sp)
    3210:	01b12e23          	sw	s11,28(sp)
    3214:	7ff97913          	andi	s2,s2,2047
    3218:	00050993          	mv	s3,a0
    321c:	00060b13          	mv	s6,a2
    3220:	00068a93          	mv	s5,a3
    3224:	00c4d493          	srli	s1,s1,0xc
    3228:	01f5da13          	srli	s4,a1,0x1f
    322c:	0a090063          	beqz	s2,32cc <__divdf3+0xf8>
    3230:	7ff00793          	li	a5,2047
    3234:	0ef90e63          	beq	s2,a5,3330 <__divdf3+0x15c>
    3238:	01d55c93          	srli	s9,a0,0x1d
    323c:	00349493          	slli	s1,s1,0x3
    3240:	009cecb3          	or	s9,s9,s1
    3244:	008007b7          	lui	a5,0x800
    3248:	00fcecb3          	or	s9,s9,a5
    324c:	00351413          	slli	s0,a0,0x3
    3250:	c0190913          	addi	s2,s2,-1023
    3254:	00000b93          	li	s7,0
    3258:	014ad793          	srli	a5,s5,0x14
    325c:	00ca9993          	slli	s3,s5,0xc
    3260:	7ff7f793          	andi	a5,a5,2047
    3264:	00c9d993          	srli	s3,s3,0xc
    3268:	01fada93          	srli	s5,s5,0x1f
    326c:	10078063          	beqz	a5,336c <__divdf3+0x198>
    3270:	7ff00713          	li	a4,2047
    3274:	16e78063          	beq	a5,a4,33d4 <__divdf3+0x200>
    3278:	00399993          	slli	s3,s3,0x3
    327c:	01db5713          	srli	a4,s6,0x1d
    3280:	01376733          	or	a4,a4,s3
    3284:	008009b7          	lui	s3,0x800
    3288:	013769b3          	or	s3,a4,s3
    328c:	003b1813          	slli	a6,s6,0x3
    3290:	c0178793          	addi	a5,a5,-1023 # 7ffc01 <_heap_start+0x7f9cbd>
    3294:	00000713          	li	a4,0
    3298:	40f90933          	sub	s2,s2,a5
    329c:	002b9793          	slli	a5,s7,0x2
    32a0:	00e7e7b3          	or	a5,a5,a4
    32a4:	fff78793          	addi	a5,a5,-1
    32a8:	00e00693          	li	a3,14
    32ac:	015a44b3          	xor	s1,s4,s5
    32b0:	14f6ee63          	bltu	a3,a5,340c <__divdf3+0x238>
    32b4:	000056b7          	lui	a3,0x5
    32b8:	00279793          	slli	a5,a5,0x2
    32bc:	ee068693          	addi	a3,a3,-288 # 4ee0 <pow10.0+0x50>
    32c0:	00d787b3          	add	a5,a5,a3
    32c4:	0007a783          	lw	a5,0(a5)
    32c8:	00078067          	jr	a5
    32cc:	00a4ecb3          	or	s9,s1,a0
    32d0:	060c8e63          	beqz	s9,334c <__divdf3+0x178>
    32d4:	04048063          	beqz	s1,3314 <__divdf3+0x140>
    32d8:	00048513          	mv	a0,s1
    32dc:	2e5010ef          	jal	ra,4dc0 <__clzsi2>
    32e0:	ff550793          	addi	a5,a0,-11
    32e4:	01c00713          	li	a4,28
    32e8:	02f74c63          	blt	a4,a5,3320 <__divdf3+0x14c>
    32ec:	01d00c93          	li	s9,29
    32f0:	ff850413          	addi	s0,a0,-8
    32f4:	40fc8cb3          	sub	s9,s9,a5
    32f8:	008494b3          	sll	s1,s1,s0
    32fc:	0199dcb3          	srl	s9,s3,s9
    3300:	009cecb3          	or	s9,s9,s1
    3304:	00899433          	sll	s0,s3,s0
    3308:	c0d00913          	li	s2,-1011
    330c:	40a90933          	sub	s2,s2,a0
    3310:	f45ff06f          	j	3254 <__divdf3+0x80>
    3314:	2ad010ef          	jal	ra,4dc0 <__clzsi2>
    3318:	02050513          	addi	a0,a0,32
    331c:	fc5ff06f          	j	32e0 <__divdf3+0x10c>
    3320:	fd850c93          	addi	s9,a0,-40
    3324:	01999cb3          	sll	s9,s3,s9
    3328:	00000413          	li	s0,0
    332c:	fddff06f          	j	3308 <__divdf3+0x134>
    3330:	00a4ecb3          	or	s9,s1,a0
    3334:	020c8463          	beqz	s9,335c <__divdf3+0x188>
    3338:	00050413          	mv	s0,a0
    333c:	00048c93          	mv	s9,s1
    3340:	7ff00913          	li	s2,2047
    3344:	00300b93          	li	s7,3
    3348:	f11ff06f          	j	3258 <__divdf3+0x84>
    334c:	00000413          	li	s0,0
    3350:	00000913          	li	s2,0
    3354:	00100b93          	li	s7,1
    3358:	f01ff06f          	j	3258 <__divdf3+0x84>
    335c:	00000413          	li	s0,0
    3360:	7ff00913          	li	s2,2047
    3364:	00200b93          	li	s7,2
    3368:	ef1ff06f          	j	3258 <__divdf3+0x84>
    336c:	0169e833          	or	a6,s3,s6
    3370:	06080e63          	beqz	a6,33ec <__divdf3+0x218>
    3374:	04098063          	beqz	s3,33b4 <__divdf3+0x1e0>
    3378:	00098513          	mv	a0,s3
    337c:	245010ef          	jal	ra,4dc0 <__clzsi2>
    3380:	ff550713          	addi	a4,a0,-11
    3384:	01c00793          	li	a5,28
    3388:	02e7ce63          	blt	a5,a4,33c4 <__divdf3+0x1f0>
    338c:	01d00793          	li	a5,29
    3390:	ff850813          	addi	a6,a0,-8
    3394:	40e787b3          	sub	a5,a5,a4
    3398:	010999b3          	sll	s3,s3,a6
    339c:	00fb57b3          	srl	a5,s6,a5
    33a0:	0137e9b3          	or	s3,a5,s3
    33a4:	010b1833          	sll	a6,s6,a6
    33a8:	c0d00793          	li	a5,-1011
    33ac:	40a787b3          	sub	a5,a5,a0
    33b0:	ee5ff06f          	j	3294 <__divdf3+0xc0>
    33b4:	000b0513          	mv	a0,s6
    33b8:	209010ef          	jal	ra,4dc0 <__clzsi2>
    33bc:	02050513          	addi	a0,a0,32
    33c0:	fc1ff06f          	j	3380 <__divdf3+0x1ac>
    33c4:	fd850993          	addi	s3,a0,-40
    33c8:	013b19b3          	sll	s3,s6,s3
    33cc:	00000813          	li	a6,0
    33d0:	fd9ff06f          	j	33a8 <__divdf3+0x1d4>
    33d4:	0169e833          	or	a6,s3,s6
    33d8:	02080263          	beqz	a6,33fc <__divdf3+0x228>
    33dc:	000b0813          	mv	a6,s6
    33e0:	7ff00793          	li	a5,2047
    33e4:	00300713          	li	a4,3
    33e8:	eb1ff06f          	j	3298 <__divdf3+0xc4>
    33ec:	00000993          	li	s3,0
    33f0:	00000793          	li	a5,0
    33f4:	00100713          	li	a4,1
    33f8:	ea1ff06f          	j	3298 <__divdf3+0xc4>
    33fc:	00000993          	li	s3,0
    3400:	7ff00793          	li	a5,2047
    3404:	00200713          	li	a4,2
    3408:	e91ff06f          	j	3298 <__divdf3+0xc4>
    340c:	0199e663          	bltu	s3,s9,3418 <__divdf3+0x244>
    3410:	453c9a63          	bne	s9,s3,3864 <__divdf3+0x690>
    3414:	45046863          	bltu	s0,a6,3864 <__divdf3+0x690>
    3418:	01fc9713          	slli	a4,s9,0x1f
    341c:	00145793          	srli	a5,s0,0x1
    3420:	01f41d93          	slli	s11,s0,0x1f
    3424:	001cdc93          	srli	s9,s9,0x1
    3428:	00f76433          	or	s0,a4,a5
    342c:	01885a93          	srli	s5,a6,0x18
    3430:	00899b93          	slli	s7,s3,0x8
    3434:	017aeab3          	or	s5,s5,s7
    3438:	010bdb93          	srli	s7,s7,0x10
    343c:	000b8593          	mv	a1,s7
    3440:	010a9c13          	slli	s8,s5,0x10
    3444:	000c8513          	mv	a0,s9
    3448:	00881b13          	slli	s6,a6,0x8
    344c:	010c5c13          	srli	s8,s8,0x10
    3450:	0c5010ef          	jal	ra,4d14 <__udivsi3>
    3454:	00050593          	mv	a1,a0
    3458:	00050d13          	mv	s10,a0
    345c:	000c0513          	mv	a0,s8
    3460:	089010ef          	jal	ra,4ce8 <__mulsi3>
    3464:	00050993          	mv	s3,a0
    3468:	000b8593          	mv	a1,s7
    346c:	000c8513          	mv	a0,s9
    3470:	0ed010ef          	jal	ra,4d5c <__umodsi3>
    3474:	01051513          	slli	a0,a0,0x10
    3478:	01045713          	srli	a4,s0,0x10
    347c:	00a76733          	or	a4,a4,a0
    3480:	000d0a13          	mv	s4,s10
    3484:	01377e63          	bgeu	a4,s3,34a0 <__divdf3+0x2cc>
    3488:	01570733          	add	a4,a4,s5
    348c:	fffd0a13          	addi	s4,s10,-1
    3490:	01576863          	bltu	a4,s5,34a0 <__divdf3+0x2cc>
    3494:	01377663          	bgeu	a4,s3,34a0 <__divdf3+0x2cc>
    3498:	ffed0a13          	addi	s4,s10,-2
    349c:	01570733          	add	a4,a4,s5
    34a0:	413709b3          	sub	s3,a4,s3
    34a4:	000b8593          	mv	a1,s7
    34a8:	00098513          	mv	a0,s3
    34ac:	069010ef          	jal	ra,4d14 <__udivsi3>
    34b0:	00050593          	mv	a1,a0
    34b4:	00050d13          	mv	s10,a0
    34b8:	000c0513          	mv	a0,s8
    34bc:	02d010ef          	jal	ra,4ce8 <__mulsi3>
    34c0:	00050c93          	mv	s9,a0
    34c4:	000b8593          	mv	a1,s7
    34c8:	00098513          	mv	a0,s3
    34cc:	091010ef          	jal	ra,4d5c <__umodsi3>
    34d0:	01041413          	slli	s0,s0,0x10
    34d4:	01051513          	slli	a0,a0,0x10
    34d8:	01045413          	srli	s0,s0,0x10
    34dc:	00a46433          	or	s0,s0,a0
    34e0:	000d0793          	mv	a5,s10
    34e4:	01947e63          	bgeu	s0,s9,3500 <__divdf3+0x32c>
    34e8:	01540433          	add	s0,s0,s5
    34ec:	fffd0793          	addi	a5,s10,-1
    34f0:	01546863          	bltu	s0,s5,3500 <__divdf3+0x32c>
    34f4:	01947663          	bgeu	s0,s9,3500 <__divdf3+0x32c>
    34f8:	ffed0793          	addi	a5,s10,-2
    34fc:	01540433          	add	s0,s0,s5
    3500:	010a1713          	slli	a4,s4,0x10
    3504:	00010337          	lui	t1,0x10
    3508:	00f76733          	or	a4,a4,a5
    350c:	41940433          	sub	s0,s0,s9
    3510:	fff30c93          	addi	s9,t1,-1 # ffff <_heap_start+0xa0bb>
    3514:	019777b3          	and	a5,a4,s9
    3518:	019b7cb3          	and	s9,s6,s9
    351c:	01075e13          	srli	t3,a4,0x10
    3520:	010b5d13          	srli	s10,s6,0x10
    3524:	00078513          	mv	a0,a5
    3528:	000c8593          	mv	a1,s9
    352c:	7bc010ef          	jal	ra,4ce8 <__mulsi3>
    3530:	00050813          	mv	a6,a0
    3534:	000d0593          	mv	a1,s10
    3538:	00078513          	mv	a0,a5
    353c:	7ac010ef          	jal	ra,4ce8 <__mulsi3>
    3540:	00050793          	mv	a5,a0
    3544:	000c8593          	mv	a1,s9
    3548:	000e0513          	mv	a0,t3
    354c:	79c010ef          	jal	ra,4ce8 <__mulsi3>
    3550:	00050893          	mv	a7,a0
    3554:	000d0593          	mv	a1,s10
    3558:	000e0513          	mv	a0,t3
    355c:	78c010ef          	jal	ra,4ce8 <__mulsi3>
    3560:	01085a13          	srli	s4,a6,0x10
    3564:	011787b3          	add	a5,a5,a7
    3568:	00fa0a33          	add	s4,s4,a5
    356c:	00050693          	mv	a3,a0
    3570:	011a7463          	bgeu	s4,a7,3578 <__divdf3+0x3a4>
    3574:	006506b3          	add	a3,a0,t1
    3578:	010a5793          	srli	a5,s4,0x10
    357c:	00d787b3          	add	a5,a5,a3
    3580:	000106b7          	lui	a3,0x10
    3584:	fff68693          	addi	a3,a3,-1 # ffff <_heap_start+0xa0bb>
    3588:	00da7a33          	and	s4,s4,a3
    358c:	010a1a13          	slli	s4,s4,0x10
    3590:	00d87833          	and	a6,a6,a3
    3594:	010a0a33          	add	s4,s4,a6
    3598:	00f46863          	bltu	s0,a5,35a8 <__divdf3+0x3d4>
    359c:	00070993          	mv	s3,a4
    35a0:	04f41463          	bne	s0,a5,35e8 <__divdf3+0x414>
    35a4:	054df263          	bgeu	s11,s4,35e8 <__divdf3+0x414>
    35a8:	016d8db3          	add	s11,s11,s6
    35ac:	016db6b3          	sltu	a3,s11,s6
    35b0:	015686b3          	add	a3,a3,s5
    35b4:	00d40433          	add	s0,s0,a3
    35b8:	fff70993          	addi	s3,a4,-1
    35bc:	008ae663          	bltu	s5,s0,35c8 <__divdf3+0x3f4>
    35c0:	028a9463          	bne	s5,s0,35e8 <__divdf3+0x414>
    35c4:	036de263          	bltu	s11,s6,35e8 <__divdf3+0x414>
    35c8:	00f46663          	bltu	s0,a5,35d4 <__divdf3+0x400>
    35cc:	00879e63          	bne	a5,s0,35e8 <__divdf3+0x414>
    35d0:	014dfc63          	bgeu	s11,s4,35e8 <__divdf3+0x414>
    35d4:	016d8db3          	add	s11,s11,s6
    35d8:	ffe70993          	addi	s3,a4,-2
    35dc:	016db733          	sltu	a4,s11,s6
    35e0:	01570733          	add	a4,a4,s5
    35e4:	00e40433          	add	s0,s0,a4
    35e8:	414d8a33          	sub	s4,s11,s4
    35ec:	40f40433          	sub	s0,s0,a5
    35f0:	014db7b3          	sltu	a5,s11,s4
    35f4:	40f40433          	sub	s0,s0,a5
    35f8:	fff00813          	li	a6,-1
    35fc:	1a8a8263          	beq	s5,s0,37a0 <__divdf3+0x5cc>
    3600:	000b8593          	mv	a1,s7
    3604:	00040513          	mv	a0,s0
    3608:	70c010ef          	jal	ra,4d14 <__udivsi3>
    360c:	00050593          	mv	a1,a0
    3610:	00a12623          	sw	a0,12(sp)
    3614:	000c0513          	mv	a0,s8
    3618:	6d0010ef          	jal	ra,4ce8 <__mulsi3>
    361c:	00a12423          	sw	a0,8(sp)
    3620:	000b8593          	mv	a1,s7
    3624:	00040513          	mv	a0,s0
    3628:	734010ef          	jal	ra,4d5c <__umodsi3>
    362c:	00c12683          	lw	a3,12(sp)
    3630:	00812783          	lw	a5,8(sp)
    3634:	01051513          	slli	a0,a0,0x10
    3638:	010a5713          	srli	a4,s4,0x10
    363c:	00a76733          	or	a4,a4,a0
    3640:	00068d93          	mv	s11,a3
    3644:	00f77e63          	bgeu	a4,a5,3660 <__divdf3+0x48c>
    3648:	01570733          	add	a4,a4,s5
    364c:	fff68d93          	addi	s11,a3,-1
    3650:	01576863          	bltu	a4,s5,3660 <__divdf3+0x48c>
    3654:	00f77663          	bgeu	a4,a5,3660 <__divdf3+0x48c>
    3658:	ffe68d93          	addi	s11,a3,-2
    365c:	01570733          	add	a4,a4,s5
    3660:	40f70433          	sub	s0,a4,a5
    3664:	000b8593          	mv	a1,s7
    3668:	00040513          	mv	a0,s0
    366c:	6a8010ef          	jal	ra,4d14 <__udivsi3>
    3670:	00050593          	mv	a1,a0
    3674:	00a12423          	sw	a0,8(sp)
    3678:	000c0513          	mv	a0,s8
    367c:	66c010ef          	jal	ra,4ce8 <__mulsi3>
    3680:	00050c13          	mv	s8,a0
    3684:	000b8593          	mv	a1,s7
    3688:	00040513          	mv	a0,s0
    368c:	6d0010ef          	jal	ra,4d5c <__umodsi3>
    3690:	00812783          	lw	a5,8(sp)
    3694:	010a1713          	slli	a4,s4,0x10
    3698:	01051513          	slli	a0,a0,0x10
    369c:	01075713          	srli	a4,a4,0x10
    36a0:	00a76733          	or	a4,a4,a0
    36a4:	00078693          	mv	a3,a5
    36a8:	01877e63          	bgeu	a4,s8,36c4 <__divdf3+0x4f0>
    36ac:	01570733          	add	a4,a4,s5
    36b0:	fff78693          	addi	a3,a5,-1
    36b4:	01576863          	bltu	a4,s5,36c4 <__divdf3+0x4f0>
    36b8:	01877663          	bgeu	a4,s8,36c4 <__divdf3+0x4f0>
    36bc:	ffe78693          	addi	a3,a5,-2
    36c0:	01570733          	add	a4,a4,s5
    36c4:	010d9793          	slli	a5,s11,0x10
    36c8:	00d7e7b3          	or	a5,a5,a3
    36cc:	01079813          	slli	a6,a5,0x10
    36d0:	01085813          	srli	a6,a6,0x10
    36d4:	41870733          	sub	a4,a4,s8
    36d8:	0107de13          	srli	t3,a5,0x10
    36dc:	00080513          	mv	a0,a6
    36e0:	000c8593          	mv	a1,s9
    36e4:	604010ef          	jal	ra,4ce8 <__mulsi3>
    36e8:	00050893          	mv	a7,a0
    36ec:	000d0593          	mv	a1,s10
    36f0:	00080513          	mv	a0,a6
    36f4:	5f4010ef          	jal	ra,4ce8 <__mulsi3>
    36f8:	00050813          	mv	a6,a0
    36fc:	000c8593          	mv	a1,s9
    3700:	000e0513          	mv	a0,t3
    3704:	5e4010ef          	jal	ra,4ce8 <__mulsi3>
    3708:	00050313          	mv	t1,a0
    370c:	000d0593          	mv	a1,s10
    3710:	000e0513          	mv	a0,t3
    3714:	5d4010ef          	jal	ra,4ce8 <__mulsi3>
    3718:	0108d693          	srli	a3,a7,0x10
    371c:	00680833          	add	a6,a6,t1
    3720:	010686b3          	add	a3,a3,a6
    3724:	00050593          	mv	a1,a0
    3728:	0066f663          	bgeu	a3,t1,3734 <__divdf3+0x560>
    372c:	00010637          	lui	a2,0x10
    3730:	00c505b3          	add	a1,a0,a2
    3734:	0106d613          	srli	a2,a3,0x10
    3738:	00b60633          	add	a2,a2,a1
    373c:	000105b7          	lui	a1,0x10
    3740:	fff58593          	addi	a1,a1,-1 # ffff <_heap_start+0xa0bb>
    3744:	00b6f6b3          	and	a3,a3,a1
    3748:	01069693          	slli	a3,a3,0x10
    374c:	00b8f8b3          	and	a7,a7,a1
    3750:	011686b3          	add	a3,a3,a7
    3754:	00c76863          	bltu	a4,a2,3764 <__divdf3+0x590>
    3758:	24c71a63          	bne	a4,a2,39ac <__divdf3+0x7d8>
    375c:	00078813          	mv	a6,a5
    3760:	04068063          	beqz	a3,37a0 <__divdf3+0x5cc>
    3764:	00ea8733          	add	a4,s5,a4
    3768:	fff78813          	addi	a6,a5,-1
    376c:	03576463          	bltu	a4,s5,3794 <__divdf3+0x5c0>
    3770:	00c76663          	bltu	a4,a2,377c <__divdf3+0x5a8>
    3774:	22c71a63          	bne	a4,a2,39a8 <__divdf3+0x7d4>
    3778:	02db7063          	bgeu	s6,a3,3798 <__divdf3+0x5c4>
    377c:	ffe78813          	addi	a6,a5,-2
    3780:	001b1793          	slli	a5,s6,0x1
    3784:	0167bb33          	sltu	s6,a5,s6
    3788:	015b0b33          	add	s6,s6,s5
    378c:	01670733          	add	a4,a4,s6
    3790:	00078b13          	mv	s6,a5
    3794:	00c71463          	bne	a4,a2,379c <__divdf3+0x5c8>
    3798:	00db0463          	beq	s6,a3,37a0 <__divdf3+0x5cc>
    379c:	00186813          	ori	a6,a6,1
    37a0:	3ff90793          	addi	a5,s2,1023
    37a4:	12f05063          	blez	a5,38c4 <__divdf3+0x6f0>
    37a8:	00787713          	andi	a4,a6,7
    37ac:	02070063          	beqz	a4,37cc <__divdf3+0x5f8>
    37b0:	00f87713          	andi	a4,a6,15
    37b4:	00400693          	li	a3,4
    37b8:	00d70a63          	beq	a4,a3,37cc <__divdf3+0x5f8>
    37bc:	00480713          	addi	a4,a6,4
    37c0:	01073833          	sltu	a6,a4,a6
    37c4:	010989b3          	add	s3,s3,a6
    37c8:	00070813          	mv	a6,a4
    37cc:	01000737          	lui	a4,0x1000
    37d0:	00e9f733          	and	a4,s3,a4
    37d4:	00070a63          	beqz	a4,37e8 <__divdf3+0x614>
    37d8:	ff0007b7          	lui	a5,0xff000
    37dc:	fff78793          	addi	a5,a5,-1 # feffffff <_heap_start+0xfeffa0bb>
    37e0:	00f9f9b3          	and	s3,s3,a5
    37e4:	40090793          	addi	a5,s2,1024
    37e8:	7fe00713          	li	a4,2046
    37ec:	0af74663          	blt	a4,a5,3898 <__divdf3+0x6c4>
    37f0:	00385813          	srli	a6,a6,0x3
    37f4:	01d99713          	slli	a4,s3,0x1d
    37f8:	01076733          	or	a4,a4,a6
    37fc:	0039d593          	srli	a1,s3,0x3
    3800:	7ff006b7          	lui	a3,0x7ff00
    3804:	01479793          	slli	a5,a5,0x14
    3808:	00c59593          	slli	a1,a1,0xc
    380c:	04c12083          	lw	ra,76(sp)
    3810:	04812403          	lw	s0,72(sp)
    3814:	00d7f7b3          	and	a5,a5,a3
    3818:	00c5d593          	srli	a1,a1,0xc
    381c:	00b7e7b3          	or	a5,a5,a1
    3820:	01f49493          	slli	s1,s1,0x1f
    3824:	0097e6b3          	or	a3,a5,s1
    3828:	04012903          	lw	s2,64(sp)
    382c:	04412483          	lw	s1,68(sp)
    3830:	03c12983          	lw	s3,60(sp)
    3834:	03812a03          	lw	s4,56(sp)
    3838:	03412a83          	lw	s5,52(sp)
    383c:	03012b03          	lw	s6,48(sp)
    3840:	02c12b83          	lw	s7,44(sp)
    3844:	02812c03          	lw	s8,40(sp)
    3848:	02412c83          	lw	s9,36(sp)
    384c:	02012d03          	lw	s10,32(sp)
    3850:	01c12d83          	lw	s11,28(sp)
    3854:	00070513          	mv	a0,a4
    3858:	00068593          	mv	a1,a3
    385c:	05010113          	addi	sp,sp,80
    3860:	00008067          	ret
    3864:	fff90913          	addi	s2,s2,-1
    3868:	00000d93          	li	s11,0
    386c:	bc1ff06f          	j	342c <__divdf3+0x258>
    3870:	000a0493          	mv	s1,s4
    3874:	000c8993          	mv	s3,s9
    3878:	00040813          	mv	a6,s0
    387c:	000b8713          	mv	a4,s7
    3880:	00300793          	li	a5,3
    3884:	10f70063          	beq	a4,a5,3984 <__divdf3+0x7b0>
    3888:	00100793          	li	a5,1
    388c:	0ef70663          	beq	a4,a5,3978 <__divdf3+0x7a4>
    3890:	00200793          	li	a5,2
    3894:	f0f716e3          	bne	a4,a5,37a0 <__divdf3+0x5cc>
    3898:	00000593          	li	a1,0
    389c:	00000713          	li	a4,0
    38a0:	7ff00793          	li	a5,2047
    38a4:	f5dff06f          	j	3800 <__divdf3+0x62c>
    38a8:	000a8493          	mv	s1,s5
    38ac:	fd5ff06f          	j	3880 <__divdf3+0x6ac>
    38b0:	000809b7          	lui	s3,0x80
    38b4:	00000813          	li	a6,0
    38b8:	00000493          	li	s1,0
    38bc:	00300713          	li	a4,3
    38c0:	fc1ff06f          	j	3880 <__divdf3+0x6ac>
    38c4:	00100593          	li	a1,1
    38c8:	40f585b3          	sub	a1,a1,a5
    38cc:	03800713          	li	a4,56
    38d0:	0ab74463          	blt	a4,a1,3978 <__divdf3+0x7a4>
    38d4:	01f00713          	li	a4,31
    38d8:	06b74663          	blt	a4,a1,3944 <__divdf3+0x770>
    38dc:	41e90913          	addi	s2,s2,1054
    38e0:	012997b3          	sll	a5,s3,s2
    38e4:	00b85733          	srl	a4,a6,a1
    38e8:	01281933          	sll	s2,a6,s2
    38ec:	00e7e7b3          	or	a5,a5,a4
    38f0:	01203933          	snez	s2,s2
    38f4:	0127e7b3          	or	a5,a5,s2
    38f8:	00b9d5b3          	srl	a1,s3,a1
    38fc:	0077f713          	andi	a4,a5,7
    3900:	02070063          	beqz	a4,3920 <__divdf3+0x74c>
    3904:	00f7f713          	andi	a4,a5,15
    3908:	00400693          	li	a3,4
    390c:	00d70a63          	beq	a4,a3,3920 <__divdf3+0x74c>
    3910:	00478713          	addi	a4,a5,4
    3914:	00f737b3          	sltu	a5,a4,a5
    3918:	00f585b3          	add	a1,a1,a5
    391c:	00070793          	mv	a5,a4
    3920:	00800737          	lui	a4,0x800
    3924:	00e5f733          	and	a4,a1,a4
    3928:	06071863          	bnez	a4,3998 <__divdf3+0x7c4>
    392c:	01d59713          	slli	a4,a1,0x1d
    3930:	0037d793          	srli	a5,a5,0x3
    3934:	00f76733          	or	a4,a4,a5
    3938:	0035d593          	srli	a1,a1,0x3
    393c:	00000793          	li	a5,0
    3940:	ec1ff06f          	j	3800 <__divdf3+0x62c>
    3944:	fe100713          	li	a4,-31
    3948:	40f707b3          	sub	a5,a4,a5
    394c:	02000693          	li	a3,32
    3950:	00f9d7b3          	srl	a5,s3,a5
    3954:	00000713          	li	a4,0
    3958:	00d58663          	beq	a1,a3,3964 <__divdf3+0x790>
    395c:	43e90713          	addi	a4,s2,1086
    3960:	00e99733          	sll	a4,s3,a4
    3964:	01076733          	or	a4,a4,a6
    3968:	00e03733          	snez	a4,a4
    396c:	00e7e7b3          	or	a5,a5,a4
    3970:	00000593          	li	a1,0
    3974:	f89ff06f          	j	38fc <__divdf3+0x728>
    3978:	00000593          	li	a1,0
    397c:	00000713          	li	a4,0
    3980:	fbdff06f          	j	393c <__divdf3+0x768>
    3984:	000805b7          	lui	a1,0x80
    3988:	00000713          	li	a4,0
    398c:	7ff00793          	li	a5,2047
    3990:	00000493          	li	s1,0
    3994:	e6dff06f          	j	3800 <__divdf3+0x62c>
    3998:	00000593          	li	a1,0
    399c:	00000713          	li	a4,0
    39a0:	00100793          	li	a5,1
    39a4:	e5dff06f          	j	3800 <__divdf3+0x62c>
    39a8:	00080793          	mv	a5,a6
    39ac:	00078813          	mv	a6,a5
    39b0:	dedff06f          	j	379c <__divdf3+0x5c8>

000039b4 <__eqdf2>:
    39b4:	0145d713          	srli	a4,a1,0x14
    39b8:	001007b7          	lui	a5,0x100
    39bc:	fff78793          	addi	a5,a5,-1 # fffff <_heap_start+0xfa0bb>
    39c0:	0146d813          	srli	a6,a3,0x14
    39c4:	00050313          	mv	t1,a0
    39c8:	00050e93          	mv	t4,a0
    39cc:	7ff77713          	andi	a4,a4,2047
    39d0:	7ff00513          	li	a0,2047
    39d4:	00b7f8b3          	and	a7,a5,a1
    39d8:	00060f13          	mv	t5,a2
    39dc:	00d7f7b3          	and	a5,a5,a3
    39e0:	01f5d593          	srli	a1,a1,0x1f
    39e4:	7ff87813          	andi	a6,a6,2047
    39e8:	01f6d693          	srli	a3,a3,0x1f
    39ec:	00a71c63          	bne	a4,a0,3a04 <__eqdf2+0x50>
    39f0:	0068ee33          	or	t3,a7,t1
    39f4:	00100513          	li	a0,1
    39f8:	000e1463          	bnez	t3,3a00 <__eqdf2+0x4c>
    39fc:	00e80663          	beq	a6,a4,3a08 <__eqdf2+0x54>
    3a00:	00008067          	ret
    3a04:	00a81863          	bne	a6,a0,3a14 <__eqdf2+0x60>
    3a08:	00c7e633          	or	a2,a5,a2
    3a0c:	00100513          	li	a0,1
    3a10:	fe0618e3          	bnez	a2,3a00 <__eqdf2+0x4c>
    3a14:	00100513          	li	a0,1
    3a18:	ff0714e3          	bne	a4,a6,3a00 <__eqdf2+0x4c>
    3a1c:	fef892e3          	bne	a7,a5,3a00 <__eqdf2+0x4c>
    3a20:	ffee90e3          	bne	t4,t5,3a00 <__eqdf2+0x4c>
    3a24:	00d58a63          	beq	a1,a3,3a38 <__eqdf2+0x84>
    3a28:	fc071ce3          	bnez	a4,3a00 <__eqdf2+0x4c>
    3a2c:	0068e8b3          	or	a7,a7,t1
    3a30:	01103533          	snez	a0,a7
    3a34:	00008067          	ret
    3a38:	00000513          	li	a0,0
    3a3c:	00008067          	ret

00003a40 <__gedf2>:
    3a40:	00100737          	lui	a4,0x100
    3a44:	fff70713          	addi	a4,a4,-1 # fffff <_heap_start+0xfa0bb>
    3a48:	0145d813          	srli	a6,a1,0x14
    3a4c:	00b778b3          	and	a7,a4,a1
    3a50:	00050793          	mv	a5,a0
    3a54:	00050313          	mv	t1,a0
    3a58:	7ff87813          	andi	a6,a6,2047
    3a5c:	01f5d513          	srli	a0,a1,0x1f
    3a60:	7ff00e93          	li	t4,2047
    3a64:	0146d593          	srli	a1,a3,0x14
    3a68:	00d77733          	and	a4,a4,a3
    3a6c:	00060e13          	mv	t3,a2
    3a70:	7ff5f593          	andi	a1,a1,2047
    3a74:	01f6d693          	srli	a3,a3,0x1f
    3a78:	01d81a63          	bne	a6,t4,3a8c <__gedf2+0x4c>
    3a7c:	00f8eeb3          	or	t4,a7,a5
    3a80:	080e8a63          	beqz	t4,3b14 <__gedf2+0xd4>
    3a84:	ffe00513          	li	a0,-2
    3a88:	00008067          	ret
    3a8c:	01d59663          	bne	a1,t4,3a98 <__gedf2+0x58>
    3a90:	00c76eb3          	or	t4,a4,a2
    3a94:	fe0e98e3          	bnez	t4,3a84 <__gedf2+0x44>
    3a98:	08081063          	bnez	a6,3b18 <__gedf2+0xd8>
    3a9c:	00f8e7b3          	or	a5,a7,a5
    3aa0:	0017b793          	seqz	a5,a5
    3aa4:	00059663          	bnez	a1,3ab0 <__gedf2+0x70>
    3aa8:	00c76633          	or	a2,a4,a2
    3aac:	04060c63          	beqz	a2,3b04 <__gedf2+0xc4>
    3ab0:	00079c63          	bnez	a5,3ac8 <__gedf2+0x88>
    3ab4:	00d51463          	bne	a0,a3,3abc <__gedf2+0x7c>
    3ab8:	0305d063          	bge	a1,a6,3ad8 <__gedf2+0x98>
    3abc:	04050063          	beqz	a0,3afc <__gedf2+0xbc>
    3ac0:	fff00513          	li	a0,-1
    3ac4:	00008067          	ret
    3ac8:	fff00513          	li	a0,-1
    3acc:	00068a63          	beqz	a3,3ae0 <__gedf2+0xa0>
    3ad0:	00068513          	mv	a0,a3
    3ad4:	00008067          	ret
    3ad8:	00b85663          	bge	a6,a1,3ae4 <__gedf2+0xa4>
    3adc:	fe0502e3          	beqz	a0,3ac0 <__gedf2+0x80>
    3ae0:	00008067          	ret
    3ae4:	fd176ce3          	bltu	a4,a7,3abc <__gedf2+0x7c>
    3ae8:	02e89263          	bne	a7,a4,3b0c <__gedf2+0xcc>
    3aec:	fc6e68e3          	bltu	t3,t1,3abc <__gedf2+0x7c>
    3af0:	ffc366e3          	bltu	t1,t3,3adc <__gedf2+0x9c>
    3af4:	00000513          	li	a0,0
    3af8:	00008067          	ret
    3afc:	00100513          	li	a0,1
    3b00:	00008067          	ret
    3b04:	fe0798e3          	bnez	a5,3af4 <__gedf2+0xb4>
    3b08:	fb5ff06f          	j	3abc <__gedf2+0x7c>
    3b0c:	fce8e8e3          	bltu	a7,a4,3adc <__gedf2+0x9c>
    3b10:	fe5ff06f          	j	3af4 <__gedf2+0xb4>
    3b14:	f7058ee3          	beq	a1,a6,3a90 <__gedf2+0x50>
    3b18:	f8059ee3          	bnez	a1,3ab4 <__gedf2+0x74>
    3b1c:	00000793          	li	a5,0
    3b20:	f89ff06f          	j	3aa8 <__gedf2+0x68>

00003b24 <__ledf2>:
    3b24:	00100737          	lui	a4,0x100
    3b28:	fff70713          	addi	a4,a4,-1 # fffff <_heap_start+0xfa0bb>
    3b2c:	0145d813          	srli	a6,a1,0x14
    3b30:	00b778b3          	and	a7,a4,a1
    3b34:	00050793          	mv	a5,a0
    3b38:	00050313          	mv	t1,a0
    3b3c:	7ff87813          	andi	a6,a6,2047
    3b40:	01f5d513          	srli	a0,a1,0x1f
    3b44:	7ff00e93          	li	t4,2047
    3b48:	0146d593          	srli	a1,a3,0x14
    3b4c:	00d77733          	and	a4,a4,a3
    3b50:	00060e13          	mv	t3,a2
    3b54:	7ff5f593          	andi	a1,a1,2047
    3b58:	01f6d693          	srli	a3,a3,0x1f
    3b5c:	01d81a63          	bne	a6,t4,3b70 <__ledf2+0x4c>
    3b60:	00f8eeb3          	or	t4,a7,a5
    3b64:	080e8a63          	beqz	t4,3bf8 <__ledf2+0xd4>
    3b68:	00200513          	li	a0,2
    3b6c:	00008067          	ret
    3b70:	01d59663          	bne	a1,t4,3b7c <__ledf2+0x58>
    3b74:	00c76eb3          	or	t4,a4,a2
    3b78:	fe0e98e3          	bnez	t4,3b68 <__ledf2+0x44>
    3b7c:	08081063          	bnez	a6,3bfc <__ledf2+0xd8>
    3b80:	00f8e7b3          	or	a5,a7,a5
    3b84:	0017b793          	seqz	a5,a5
    3b88:	00059663          	bnez	a1,3b94 <__ledf2+0x70>
    3b8c:	00c76633          	or	a2,a4,a2
    3b90:	04060c63          	beqz	a2,3be8 <__ledf2+0xc4>
    3b94:	00079c63          	bnez	a5,3bac <__ledf2+0x88>
    3b98:	00d51463          	bne	a0,a3,3ba0 <__ledf2+0x7c>
    3b9c:	0305d063          	bge	a1,a6,3bbc <__ledf2+0x98>
    3ba0:	04050063          	beqz	a0,3be0 <__ledf2+0xbc>
    3ba4:	fff00513          	li	a0,-1
    3ba8:	00008067          	ret
    3bac:	fff00513          	li	a0,-1
    3bb0:	00068a63          	beqz	a3,3bc4 <__ledf2+0xa0>
    3bb4:	00068513          	mv	a0,a3
    3bb8:	00008067          	ret
    3bbc:	00b85663          	bge	a6,a1,3bc8 <__ledf2+0xa4>
    3bc0:	fe0502e3          	beqz	a0,3ba4 <__ledf2+0x80>
    3bc4:	00008067          	ret
    3bc8:	fd176ce3          	bltu	a4,a7,3ba0 <__ledf2+0x7c>
    3bcc:	02e89263          	bne	a7,a4,3bf0 <__ledf2+0xcc>
    3bd0:	fc6e68e3          	bltu	t3,t1,3ba0 <__ledf2+0x7c>
    3bd4:	ffc366e3          	bltu	t1,t3,3bc0 <__ledf2+0x9c>
    3bd8:	00000513          	li	a0,0
    3bdc:	00008067          	ret
    3be0:	00100513          	li	a0,1
    3be4:	00008067          	ret
    3be8:	fe0798e3          	bnez	a5,3bd8 <__ledf2+0xb4>
    3bec:	fb5ff06f          	j	3ba0 <__ledf2+0x7c>
    3bf0:	fce8e8e3          	bltu	a7,a4,3bc0 <__ledf2+0x9c>
    3bf4:	fe5ff06f          	j	3bd8 <__ledf2+0xb4>
    3bf8:	f7058ee3          	beq	a1,a6,3b74 <__ledf2+0x50>
    3bfc:	f8059ee3          	bnez	a1,3b98 <__ledf2+0x74>
    3c00:	00000793          	li	a5,0
    3c04:	f89ff06f          	j	3b8c <__ledf2+0x68>

00003c08 <__muldf3>:
    3c08:	fd010113          	addi	sp,sp,-48
    3c0c:	01312e23          	sw	s3,28(sp)
    3c10:	0145d993          	srli	s3,a1,0x14
    3c14:	02812423          	sw	s0,40(sp)
    3c18:	02912223          	sw	s1,36(sp)
    3c1c:	01412c23          	sw	s4,24(sp)
    3c20:	01512a23          	sw	s5,20(sp)
    3c24:	01712623          	sw	s7,12(sp)
    3c28:	00c59493          	slli	s1,a1,0xc
    3c2c:	02112623          	sw	ra,44(sp)
    3c30:	03212023          	sw	s2,32(sp)
    3c34:	01612823          	sw	s6,16(sp)
    3c38:	7ff9f993          	andi	s3,s3,2047
    3c3c:	00050413          	mv	s0,a0
    3c40:	00060b93          	mv	s7,a2
    3c44:	00068a13          	mv	s4,a3
    3c48:	00c4d493          	srli	s1,s1,0xc
    3c4c:	01f5da93          	srli	s5,a1,0x1f
    3c50:	3c098863          	beqz	s3,4020 <__muldf3+0x418>
    3c54:	7ff00793          	li	a5,2047
    3c58:	42f98663          	beq	s3,a5,4084 <__muldf3+0x47c>
    3c5c:	00349493          	slli	s1,s1,0x3
    3c60:	01d55793          	srli	a5,a0,0x1d
    3c64:	0097e7b3          	or	a5,a5,s1
    3c68:	008004b7          	lui	s1,0x800
    3c6c:	0097e4b3          	or	s1,a5,s1
    3c70:	00351913          	slli	s2,a0,0x3
    3c74:	c0198993          	addi	s3,s3,-1023 # 7fc01 <_heap_start+0x79cbd>
    3c78:	00000b13          	li	s6,0
    3c7c:	014a5713          	srli	a4,s4,0x14
    3c80:	00ca1413          	slli	s0,s4,0xc
    3c84:	7ff77713          	andi	a4,a4,2047
    3c88:	00c45413          	srli	s0,s0,0xc
    3c8c:	01fa5a13          	srli	s4,s4,0x1f
    3c90:	42070663          	beqz	a4,40bc <__muldf3+0x4b4>
    3c94:	7ff00793          	li	a5,2047
    3c98:	48f70663          	beq	a4,a5,4124 <__muldf3+0x51c>
    3c9c:	00341413          	slli	s0,s0,0x3
    3ca0:	01dbd793          	srli	a5,s7,0x1d
    3ca4:	0087e7b3          	or	a5,a5,s0
    3ca8:	00800437          	lui	s0,0x800
    3cac:	0087e433          	or	s0,a5,s0
    3cb0:	c0170713          	addi	a4,a4,-1023
    3cb4:	003b9793          	slli	a5,s7,0x3
    3cb8:	00000613          	li	a2,0
    3cbc:	00e989b3          	add	s3,s3,a4
    3cc0:	002b1713          	slli	a4,s6,0x2
    3cc4:	00c76733          	or	a4,a4,a2
    3cc8:	00a00693          	li	a3,10
    3ccc:	014ac833          	xor	a6,s5,s4
    3cd0:	00198893          	addi	a7,s3,1
    3cd4:	4ce6c863          	blt	a3,a4,41a4 <__muldf3+0x59c>
    3cd8:	00200693          	li	a3,2
    3cdc:	48e6c063          	blt	a3,a4,415c <__muldf3+0x554>
    3ce0:	fff70713          	addi	a4,a4,-1
    3ce4:	00100693          	li	a3,1
    3ce8:	48e6fc63          	bgeu	a3,a4,4180 <__muldf3+0x578>
    3cec:	00010a37          	lui	s4,0x10
    3cf0:	fffa0393          	addi	t2,s4,-1 # ffff <_heap_start+0xa0bb>
    3cf4:	0107d293          	srli	t0,a5,0x10
    3cf8:	00797e33          	and	t3,s2,t2
    3cfc:	0077f7b3          	and	a5,a5,t2
    3d00:	01095f93          	srli	t6,s2,0x10
    3d04:	000e0513          	mv	a0,t3
    3d08:	00078593          	mv	a1,a5
    3d0c:	7dd000ef          	jal	ra,4ce8 <__mulsi3>
    3d10:	00050e93          	mv	t4,a0
    3d14:	00028593          	mv	a1,t0
    3d18:	000e0513          	mv	a0,t3
    3d1c:	7cd000ef          	jal	ra,4ce8 <__mulsi3>
    3d20:	00050713          	mv	a4,a0
    3d24:	00078593          	mv	a1,a5
    3d28:	000f8513          	mv	a0,t6
    3d2c:	7bd000ef          	jal	ra,4ce8 <__mulsi3>
    3d30:	00050913          	mv	s2,a0
    3d34:	00028593          	mv	a1,t0
    3d38:	000f8513          	mv	a0,t6
    3d3c:	7ad000ef          	jal	ra,4ce8 <__mulsi3>
    3d40:	010ed313          	srli	t1,t4,0x10
    3d44:	01270733          	add	a4,a4,s2
    3d48:	00e30333          	add	t1,t1,a4
    3d4c:	00050f13          	mv	t5,a0
    3d50:	01237463          	bgeu	t1,s2,3d58 <__muldf3+0x150>
    3d54:	01450f33          	add	t5,a0,s4
    3d58:	01035913          	srli	s2,t1,0x10
    3d5c:	00737333          	and	t1,t1,t2
    3d60:	007efeb3          	and	t4,t4,t2
    3d64:	01031313          	slli	t1,t1,0x10
    3d68:	007473b3          	and	t2,s0,t2
    3d6c:	01d30333          	add	t1,t1,t4
    3d70:	01045a13          	srli	s4,s0,0x10
    3d74:	000e0513          	mv	a0,t3
    3d78:	00038593          	mv	a1,t2
    3d7c:	76d000ef          	jal	ra,4ce8 <__mulsi3>
    3d80:	00050e93          	mv	t4,a0
    3d84:	000a0593          	mv	a1,s4
    3d88:	000e0513          	mv	a0,t3
    3d8c:	75d000ef          	jal	ra,4ce8 <__mulsi3>
    3d90:	00050e13          	mv	t3,a0
    3d94:	00038593          	mv	a1,t2
    3d98:	000f8513          	mv	a0,t6
    3d9c:	74d000ef          	jal	ra,4ce8 <__mulsi3>
    3da0:	00050413          	mv	s0,a0
    3da4:	000a0593          	mv	a1,s4
    3da8:	000f8513          	mv	a0,t6
    3dac:	73d000ef          	jal	ra,4ce8 <__mulsi3>
    3db0:	010ed713          	srli	a4,t4,0x10
    3db4:	008e0e33          	add	t3,t3,s0
    3db8:	01c70733          	add	a4,a4,t3
    3dbc:	00050693          	mv	a3,a0
    3dc0:	00877663          	bgeu	a4,s0,3dcc <__muldf3+0x1c4>
    3dc4:	00010637          	lui	a2,0x10
    3dc8:	00c506b3          	add	a3,a0,a2
    3dcc:	00010b37          	lui	s6,0x10
    3dd0:	fffb0e13          	addi	t3,s6,-1 # ffff <_heap_start+0xa0bb>
    3dd4:	01075f93          	srli	t6,a4,0x10
    3dd8:	01c77733          	and	a4,a4,t3
    3ddc:	01071713          	slli	a4,a4,0x10
    3de0:	01cefeb3          	and	t4,t4,t3
    3de4:	01d70eb3          	add	t4,a4,t4
    3de8:	01c4fe33          	and	t3,s1,t3
    3dec:	00df8fb3          	add	t6,t6,a3
    3df0:	01d90933          	add	s2,s2,t4
    3df4:	0104da93          	srli	s5,s1,0x10
    3df8:	000e0513          	mv	a0,t3
    3dfc:	00078593          	mv	a1,a5
    3e00:	6e9000ef          	jal	ra,4ce8 <__mulsi3>
    3e04:	00050413          	mv	s0,a0
    3e08:	00028593          	mv	a1,t0
    3e0c:	000e0513          	mv	a0,t3
    3e10:	6d9000ef          	jal	ra,4ce8 <__mulsi3>
    3e14:	00050493          	mv	s1,a0
    3e18:	00078593          	mv	a1,a5
    3e1c:	000a8513          	mv	a0,s5
    3e20:	6c9000ef          	jal	ra,4ce8 <__mulsi3>
    3e24:	00050b93          	mv	s7,a0
    3e28:	00028593          	mv	a1,t0
    3e2c:	000a8513          	mv	a0,s5
    3e30:	6b9000ef          	jal	ra,4ce8 <__mulsi3>
    3e34:	01045793          	srli	a5,s0,0x10
    3e38:	017484b3          	add	s1,s1,s7
    3e3c:	009787b3          	add	a5,a5,s1
    3e40:	00050713          	mv	a4,a0
    3e44:	0177f463          	bgeu	a5,s7,3e4c <__muldf3+0x244>
    3e48:	01650733          	add	a4,a0,s6
    3e4c:	000104b7          	lui	s1,0x10
    3e50:	fff48693          	addi	a3,s1,-1 # ffff <_heap_start+0xa0bb>
    3e54:	0107d293          	srli	t0,a5,0x10
    3e58:	00e282b3          	add	t0,t0,a4
    3e5c:	00d7f733          	and	a4,a5,a3
    3e60:	00d47433          	and	s0,s0,a3
    3e64:	01071713          	slli	a4,a4,0x10
    3e68:	00870733          	add	a4,a4,s0
    3e6c:	000e0513          	mv	a0,t3
    3e70:	00038593          	mv	a1,t2
    3e74:	675000ef          	jal	ra,4ce8 <__mulsi3>
    3e78:	00050413          	mv	s0,a0
    3e7c:	000a0593          	mv	a1,s4
    3e80:	000e0513          	mv	a0,t3
    3e84:	665000ef          	jal	ra,4ce8 <__mulsi3>
    3e88:	00050e13          	mv	t3,a0
    3e8c:	00038593          	mv	a1,t2
    3e90:	000a8513          	mv	a0,s5
    3e94:	655000ef          	jal	ra,4ce8 <__mulsi3>
    3e98:	00050393          	mv	t2,a0
    3e9c:	000a0593          	mv	a1,s4
    3ea0:	000a8513          	mv	a0,s5
    3ea4:	645000ef          	jal	ra,4ce8 <__mulsi3>
    3ea8:	01045793          	srli	a5,s0,0x10
    3eac:	007e0e33          	add	t3,t3,t2
    3eb0:	01c78e33          	add	t3,a5,t3
    3eb4:	00050593          	mv	a1,a0
    3eb8:	007e7463          	bgeu	t3,t2,3ec0 <__muldf3+0x2b8>
    3ebc:	009505b3          	add	a1,a0,s1
    3ec0:	000106b7          	lui	a3,0x10
    3ec4:	fff68693          	addi	a3,a3,-1 # ffff <_heap_start+0xa0bb>
    3ec8:	00de77b3          	and	a5,t3,a3
    3ecc:	00d47433          	and	s0,s0,a3
    3ed0:	01079793          	slli	a5,a5,0x10
    3ed4:	012f0f33          	add	t5,t5,s2
    3ed8:	008787b3          	add	a5,a5,s0
    3edc:	01df3eb3          	sltu	t4,t5,t4
    3ee0:	01f787b3          	add	a5,a5,t6
    3ee4:	01d78533          	add	a0,a5,t4
    3ee8:	00ef0f33          	add	t5,t5,a4
    3eec:	00ef3733          	sltu	a4,t5,a4
    3ef0:	005506b3          	add	a3,a0,t0
    3ef4:	00e68633          	add	a2,a3,a4
    3ef8:	01f7b433          	sltu	s0,a5,t6
    3efc:	01d53533          	sltu	a0,a0,t4
    3f00:	010e5793          	srli	a5,t3,0x10
    3f04:	00e63733          	sltu	a4,a2,a4
    3f08:	00a46433          	or	s0,s0,a0
    3f0c:	0056b6b3          	sltu	a3,a3,t0
    3f10:	00f40433          	add	s0,s0,a5
    3f14:	00e6e6b3          	or	a3,a3,a4
    3f18:	00d40433          	add	s0,s0,a3
    3f1c:	00b40433          	add	s0,s0,a1
    3f20:	01765793          	srli	a5,a2,0x17
    3f24:	00941413          	slli	s0,s0,0x9
    3f28:	00f46433          	or	s0,s0,a5
    3f2c:	009f1793          	slli	a5,t5,0x9
    3f30:	0067e7b3          	or	a5,a5,t1
    3f34:	00f037b3          	snez	a5,a5
    3f38:	017f5f13          	srli	t5,t5,0x17
    3f3c:	00961713          	slli	a4,a2,0x9
    3f40:	01e7e7b3          	or	a5,a5,t5
    3f44:	00e7e7b3          	or	a5,a5,a4
    3f48:	01000737          	lui	a4,0x1000
    3f4c:	00e47733          	and	a4,s0,a4
    3f50:	28070663          	beqz	a4,41dc <__muldf3+0x5d4>
    3f54:	0017d713          	srli	a4,a5,0x1
    3f58:	0017f793          	andi	a5,a5,1
    3f5c:	00f76733          	or	a4,a4,a5
    3f60:	01f41793          	slli	a5,s0,0x1f
    3f64:	00f767b3          	or	a5,a4,a5
    3f68:	00145413          	srli	s0,s0,0x1
    3f6c:	3ff88693          	addi	a3,a7,1023 # 8003ff <_heap_start+0x7fa4bb>
    3f70:	26d05a63          	blez	a3,41e4 <__muldf3+0x5dc>
    3f74:	0077f713          	andi	a4,a5,7
    3f78:	02070063          	beqz	a4,3f98 <__muldf3+0x390>
    3f7c:	00f7f713          	andi	a4,a5,15
    3f80:	00400613          	li	a2,4
    3f84:	00c70a63          	beq	a4,a2,3f98 <__muldf3+0x390>
    3f88:	00478713          	addi	a4,a5,4
    3f8c:	00f737b3          	sltu	a5,a4,a5
    3f90:	00f40433          	add	s0,s0,a5
    3f94:	00070793          	mv	a5,a4
    3f98:	01000737          	lui	a4,0x1000
    3f9c:	00e47733          	and	a4,s0,a4
    3fa0:	00070a63          	beqz	a4,3fb4 <__muldf3+0x3ac>
    3fa4:	ff000737          	lui	a4,0xff000
    3fa8:	fff70713          	addi	a4,a4,-1 # feffffff <_heap_start+0xfeffa0bb>
    3fac:	00e47433          	and	s0,s0,a4
    3fb0:	40088693          	addi	a3,a7,1024
    3fb4:	7fe00713          	li	a4,2046
    3fb8:	2ed74e63          	blt	a4,a3,42b4 <__muldf3+0x6ac>
    3fbc:	01d41713          	slli	a4,s0,0x1d
    3fc0:	0037d793          	srli	a5,a5,0x3
    3fc4:	00f76733          	or	a4,a4,a5
    3fc8:	00345413          	srli	s0,s0,0x3
    3fcc:	7ff007b7          	lui	a5,0x7ff00
    3fd0:	01469693          	slli	a3,a3,0x14
    3fd4:	00c41413          	slli	s0,s0,0xc
    3fd8:	00f6f6b3          	and	a3,a3,a5
    3fdc:	00c45413          	srli	s0,s0,0xc
    3fe0:	02c12083          	lw	ra,44(sp)
    3fe4:	0086e6b3          	or	a3,a3,s0
    3fe8:	02812403          	lw	s0,40(sp)
    3fec:	01f81813          	slli	a6,a6,0x1f
    3ff0:	0106e7b3          	or	a5,a3,a6
    3ff4:	02412483          	lw	s1,36(sp)
    3ff8:	02012903          	lw	s2,32(sp)
    3ffc:	01c12983          	lw	s3,28(sp)
    4000:	01812a03          	lw	s4,24(sp)
    4004:	01412a83          	lw	s5,20(sp)
    4008:	01012b03          	lw	s6,16(sp)
    400c:	00c12b83          	lw	s7,12(sp)
    4010:	00070513          	mv	a0,a4
    4014:	00078593          	mv	a1,a5
    4018:	03010113          	addi	sp,sp,48
    401c:	00008067          	ret
    4020:	00a4e933          	or	s2,s1,a0
    4024:	06090c63          	beqz	s2,409c <__muldf3+0x494>
    4028:	04048063          	beqz	s1,4068 <__muldf3+0x460>
    402c:	00048513          	mv	a0,s1
    4030:	591000ef          	jal	ra,4dc0 <__clzsi2>
    4034:	ff550713          	addi	a4,a0,-11
    4038:	01c00793          	li	a5,28
    403c:	02e7cc63          	blt	a5,a4,4074 <__muldf3+0x46c>
    4040:	01d00793          	li	a5,29
    4044:	ff850913          	addi	s2,a0,-8
    4048:	40e787b3          	sub	a5,a5,a4
    404c:	012494b3          	sll	s1,s1,s2
    4050:	00f457b3          	srl	a5,s0,a5
    4054:	0097e4b3          	or	s1,a5,s1
    4058:	01241933          	sll	s2,s0,s2
    405c:	c0d00993          	li	s3,-1011
    4060:	40a989b3          	sub	s3,s3,a0
    4064:	c15ff06f          	j	3c78 <__muldf3+0x70>
    4068:	559000ef          	jal	ra,4dc0 <__clzsi2>
    406c:	02050513          	addi	a0,a0,32
    4070:	fc5ff06f          	j	4034 <__muldf3+0x42c>
    4074:	fd850493          	addi	s1,a0,-40
    4078:	009414b3          	sll	s1,s0,s1
    407c:	00000913          	li	s2,0
    4080:	fddff06f          	j	405c <__muldf3+0x454>
    4084:	00a4e933          	or	s2,s1,a0
    4088:	02090263          	beqz	s2,40ac <__muldf3+0x4a4>
    408c:	00050913          	mv	s2,a0
    4090:	7ff00993          	li	s3,2047
    4094:	00300b13          	li	s6,3
    4098:	be5ff06f          	j	3c7c <__muldf3+0x74>
    409c:	00000493          	li	s1,0
    40a0:	00000993          	li	s3,0
    40a4:	00100b13          	li	s6,1
    40a8:	bd5ff06f          	j	3c7c <__muldf3+0x74>
    40ac:	00000493          	li	s1,0
    40b0:	7ff00993          	li	s3,2047
    40b4:	00200b13          	li	s6,2
    40b8:	bc5ff06f          	j	3c7c <__muldf3+0x74>
    40bc:	017467b3          	or	a5,s0,s7
    40c0:	06078e63          	beqz	a5,413c <__muldf3+0x534>
    40c4:	04040063          	beqz	s0,4104 <__muldf3+0x4fc>
    40c8:	00040513          	mv	a0,s0
    40cc:	4f5000ef          	jal	ra,4dc0 <__clzsi2>
    40d0:	ff550693          	addi	a3,a0,-11
    40d4:	01c00793          	li	a5,28
    40d8:	02d7ce63          	blt	a5,a3,4114 <__muldf3+0x50c>
    40dc:	01d00713          	li	a4,29
    40e0:	ff850793          	addi	a5,a0,-8
    40e4:	40d70733          	sub	a4,a4,a3
    40e8:	00f41433          	sll	s0,s0,a5
    40ec:	00ebd733          	srl	a4,s7,a4
    40f0:	00876433          	or	s0,a4,s0
    40f4:	00fb97b3          	sll	a5,s7,a5
    40f8:	c0d00713          	li	a4,-1011
    40fc:	40a70733          	sub	a4,a4,a0
    4100:	bb9ff06f          	j	3cb8 <__muldf3+0xb0>
    4104:	000b8513          	mv	a0,s7
    4108:	4b9000ef          	jal	ra,4dc0 <__clzsi2>
    410c:	02050513          	addi	a0,a0,32
    4110:	fc1ff06f          	j	40d0 <__muldf3+0x4c8>
    4114:	fd850413          	addi	s0,a0,-40
    4118:	008b9433          	sll	s0,s7,s0
    411c:	00000793          	li	a5,0
    4120:	fd9ff06f          	j	40f8 <__muldf3+0x4f0>
    4124:	017467b3          	or	a5,s0,s7
    4128:	02078263          	beqz	a5,414c <__muldf3+0x544>
    412c:	000b8793          	mv	a5,s7
    4130:	7ff00713          	li	a4,2047
    4134:	00300613          	li	a2,3
    4138:	b85ff06f          	j	3cbc <__muldf3+0xb4>
    413c:	00000413          	li	s0,0
    4140:	00000713          	li	a4,0
    4144:	00100613          	li	a2,1
    4148:	b75ff06f          	j	3cbc <__muldf3+0xb4>
    414c:	00000413          	li	s0,0
    4150:	7ff00713          	li	a4,2047
    4154:	00200613          	li	a2,2
    4158:	b65ff06f          	j	3cbc <__muldf3+0xb4>
    415c:	00100693          	li	a3,1
    4160:	00e696b3          	sll	a3,a3,a4
    4164:	5306f713          	andi	a4,a3,1328
    4168:	04071863          	bnez	a4,41b8 <__muldf3+0x5b0>
    416c:	2406f593          	andi	a1,a3,576
    4170:	12059463          	bnez	a1,4298 <__muldf3+0x690>
    4174:	0886f693          	andi	a3,a3,136
    4178:	b6068ae3          	beqz	a3,3cec <__muldf3+0xe4>
    417c:	000a0813          	mv	a6,s4
    4180:	00200713          	li	a4,2
    4184:	12e60863          	beq	a2,a4,42b4 <__muldf3+0x6ac>
    4188:	00300713          	li	a4,3
    418c:	10e60e63          	beq	a2,a4,42a8 <__muldf3+0x6a0>
    4190:	00100713          	li	a4,1
    4194:	dce61ce3          	bne	a2,a4,3f6c <__muldf3+0x364>
    4198:	00000413          	li	s0,0
    419c:	00000713          	li	a4,0
    41a0:	0bc0006f          	j	425c <__muldf3+0x654>
    41a4:	00f00693          	li	a3,15
    41a8:	02d70063          	beq	a4,a3,41c8 <__muldf3+0x5c0>
    41ac:	00b00693          	li	a3,11
    41b0:	fcd706e3          	beq	a4,a3,417c <__muldf3+0x574>
    41b4:	000a8813          	mv	a6,s5
    41b8:	00048413          	mv	s0,s1
    41bc:	00090793          	mv	a5,s2
    41c0:	000b0613          	mv	a2,s6
    41c4:	fbdff06f          	j	4180 <__muldf3+0x578>
    41c8:	00080437          	lui	s0,0x80
    41cc:	00000793          	li	a5,0
    41d0:	00000813          	li	a6,0
    41d4:	00300613          	li	a2,3
    41d8:	fb1ff06f          	j	4188 <__muldf3+0x580>
    41dc:	00098893          	mv	a7,s3
    41e0:	d8dff06f          	j	3f6c <__muldf3+0x364>
    41e4:	00100613          	li	a2,1
    41e8:	40d60633          	sub	a2,a2,a3
    41ec:	03800713          	li	a4,56
    41f0:	fac744e3          	blt	a4,a2,4198 <__muldf3+0x590>
    41f4:	01f00713          	li	a4,31
    41f8:	06c74663          	blt	a4,a2,4264 <__muldf3+0x65c>
    41fc:	41e88893          	addi	a7,a7,1054
    4200:	01141733          	sll	a4,s0,a7
    4204:	00c7d6b3          	srl	a3,a5,a2
    4208:	011798b3          	sll	a7,a5,a7
    420c:	00d76733          	or	a4,a4,a3
    4210:	011038b3          	snez	a7,a7
    4214:	011767b3          	or	a5,a4,a7
    4218:	00c45433          	srl	s0,s0,a2
    421c:	0077f713          	andi	a4,a5,7
    4220:	02070063          	beqz	a4,4240 <__muldf3+0x638>
    4224:	00f7f713          	andi	a4,a5,15
    4228:	00400693          	li	a3,4
    422c:	00d70a63          	beq	a4,a3,4240 <__muldf3+0x638>
    4230:	00478713          	addi	a4,a5,4 # 7ff00004 <_heap_start+0x7fefa0c0>
    4234:	00f737b3          	sltu	a5,a4,a5
    4238:	00f40433          	add	s0,s0,a5
    423c:	00070793          	mv	a5,a4
    4240:	00800737          	lui	a4,0x800
    4244:	00e47733          	and	a4,s0,a4
    4248:	06071e63          	bnez	a4,42c4 <__muldf3+0x6bc>
    424c:	01d41713          	slli	a4,s0,0x1d
    4250:	0037d793          	srli	a5,a5,0x3
    4254:	00f76733          	or	a4,a4,a5
    4258:	00345413          	srli	s0,s0,0x3
    425c:	00000693          	li	a3,0
    4260:	d6dff06f          	j	3fcc <__muldf3+0x3c4>
    4264:	fe100713          	li	a4,-31
    4268:	40d70733          	sub	a4,a4,a3
    426c:	02000593          	li	a1,32
    4270:	00e45733          	srl	a4,s0,a4
    4274:	00000693          	li	a3,0
    4278:	00b60663          	beq	a2,a1,4284 <__muldf3+0x67c>
    427c:	43e88893          	addi	a7,a7,1086
    4280:	011416b3          	sll	a3,s0,a7
    4284:	00f6e6b3          	or	a3,a3,a5
    4288:	00d036b3          	snez	a3,a3
    428c:	00d767b3          	or	a5,a4,a3
    4290:	00000413          	li	s0,0
    4294:	f89ff06f          	j	421c <__muldf3+0x614>
    4298:	00080437          	lui	s0,0x80
    429c:	7ff00693          	li	a3,2047
    42a0:	00000813          	li	a6,0
    42a4:	d29ff06f          	j	3fcc <__muldf3+0x3c4>
    42a8:	00080437          	lui	s0,0x80
    42ac:	00000713          	li	a4,0
    42b0:	fedff06f          	j	429c <__muldf3+0x694>
    42b4:	00000413          	li	s0,0
    42b8:	00000713          	li	a4,0
    42bc:	7ff00693          	li	a3,2047
    42c0:	d0dff06f          	j	3fcc <__muldf3+0x3c4>
    42c4:	00000413          	li	s0,0
    42c8:	00000713          	li	a4,0
    42cc:	00100693          	li	a3,1
    42d0:	cfdff06f          	j	3fcc <__muldf3+0x3c4>

000042d4 <__subdf3>:
    42d4:	00100837          	lui	a6,0x100
    42d8:	fff80813          	addi	a6,a6,-1 # fffff <_heap_start+0xfa0bb>
    42dc:	fe010113          	addi	sp,sp,-32
    42e0:	00b878b3          	and	a7,a6,a1
    42e4:	0145d713          	srli	a4,a1,0x14
    42e8:	01d55793          	srli	a5,a0,0x1d
    42ec:	00d87833          	and	a6,a6,a3
    42f0:	00812c23          	sw	s0,24(sp)
    42f4:	7ff77413          	andi	s0,a4,2047
    42f8:	00389713          	slli	a4,a7,0x3
    42fc:	0146d893          	srli	a7,a3,0x14
    4300:	00912a23          	sw	s1,20(sp)
    4304:	00e7e7b3          	or	a5,a5,a4
    4308:	01f5d493          	srli	s1,a1,0x1f
    430c:	01d65713          	srli	a4,a2,0x1d
    4310:	00381813          	slli	a6,a6,0x3
    4314:	00112e23          	sw	ra,28(sp)
    4318:	01212823          	sw	s2,16(sp)
    431c:	01312623          	sw	s3,12(sp)
    4320:	7ff8f893          	andi	a7,a7,2047
    4324:	7ff00593          	li	a1,2047
    4328:	00351513          	slli	a0,a0,0x3
    432c:	01f6d693          	srli	a3,a3,0x1f
    4330:	01076733          	or	a4,a4,a6
    4334:	00361613          	slli	a2,a2,0x3
    4338:	00b89663          	bne	a7,a1,4344 <__subdf3+0x70>
    433c:	00c765b3          	or	a1,a4,a2
    4340:	00059463          	bnez	a1,4348 <__subdf3+0x74>
    4344:	0016c693          	xori	a3,a3,1
    4348:	41140833          	sub	a6,s0,a7
    434c:	2c969863          	bne	a3,s1,461c <__subdf3+0x348>
    4350:	13005063          	blez	a6,4470 <__subdf3+0x19c>
    4354:	04089063          	bnez	a7,4394 <__subdf3+0xc0>
    4358:	00c766b3          	or	a3,a4,a2
    435c:	70068e63          	beqz	a3,4a78 <__subdf3+0x7a4>
    4360:	fff80593          	addi	a1,a6,-1
    4364:	02059063          	bnez	a1,4384 <__subdf3+0xb0>
    4368:	00c50633          	add	a2,a0,a2
    436c:	00e78733          	add	a4,a5,a4
    4370:	00a637b3          	sltu	a5,a2,a0
    4374:	00f707b3          	add	a5,a4,a5
    4378:	00060513          	mv	a0,a2
    437c:	00100413          	li	s0,1
    4380:	0700006f          	j	43f0 <__subdf3+0x11c>
    4384:	7ff00693          	li	a3,2047
    4388:	02d81063          	bne	a6,a3,43a8 <__subdf3+0xd4>
    438c:	7ff00413          	li	s0,2047
    4390:	2140006f          	j	45a4 <__subdf3+0x2d0>
    4394:	7ff00693          	li	a3,2047
    4398:	20d40663          	beq	s0,a3,45a4 <__subdf3+0x2d0>
    439c:	008006b7          	lui	a3,0x800
    43a0:	00d76733          	or	a4,a4,a3
    43a4:	00080593          	mv	a1,a6
    43a8:	03800693          	li	a3,56
    43ac:	0ab6cc63          	blt	a3,a1,4464 <__subdf3+0x190>
    43b0:	01f00693          	li	a3,31
    43b4:	06b6ce63          	blt	a3,a1,4430 <__subdf3+0x15c>
    43b8:	02000813          	li	a6,32
    43bc:	40b80833          	sub	a6,a6,a1
    43c0:	010716b3          	sll	a3,a4,a6
    43c4:	00b658b3          	srl	a7,a2,a1
    43c8:	01061833          	sll	a6,a2,a6
    43cc:	0116e6b3          	or	a3,a3,a7
    43d0:	01003833          	snez	a6,a6
    43d4:	0106e6b3          	or	a3,a3,a6
    43d8:	00b755b3          	srl	a1,a4,a1
    43dc:	00a686b3          	add	a3,a3,a0
    43e0:	00f585b3          	add	a1,a1,a5
    43e4:	00a6b7b3          	sltu	a5,a3,a0
    43e8:	00f587b3          	add	a5,a1,a5
    43ec:	00068513          	mv	a0,a3
    43f0:	00800737          	lui	a4,0x800
    43f4:	00e7f733          	and	a4,a5,a4
    43f8:	1a070663          	beqz	a4,45a4 <__subdf3+0x2d0>
    43fc:	00140413          	addi	s0,s0,1 # 80001 <_heap_start+0x7a0bd>
    4400:	7ff00713          	li	a4,2047
    4404:	5ce40a63          	beq	s0,a4,49d8 <__subdf3+0x704>
    4408:	ff800737          	lui	a4,0xff800
    440c:	fff70713          	addi	a4,a4,-1 # ff7fffff <_heap_start+0xff7fa0bb>
    4410:	00e7f7b3          	and	a5,a5,a4
    4414:	00155713          	srli	a4,a0,0x1
    4418:	00157513          	andi	a0,a0,1
    441c:	00a76733          	or	a4,a4,a0
    4420:	01f79513          	slli	a0,a5,0x1f
    4424:	00e56533          	or	a0,a0,a4
    4428:	0017d793          	srli	a5,a5,0x1
    442c:	1780006f          	j	45a4 <__subdf3+0x2d0>
    4430:	fe058693          	addi	a3,a1,-32 # 7ffe0 <_heap_start+0x7a09c>
    4434:	02000893          	li	a7,32
    4438:	00d756b3          	srl	a3,a4,a3
    443c:	00000813          	li	a6,0
    4440:	01158863          	beq	a1,a7,4450 <__subdf3+0x17c>
    4444:	04000813          	li	a6,64
    4448:	40b80833          	sub	a6,a6,a1
    444c:	01071833          	sll	a6,a4,a6
    4450:	00c86833          	or	a6,a6,a2
    4454:	01003833          	snez	a6,a6
    4458:	0106e6b3          	or	a3,a3,a6
    445c:	00000593          	li	a1,0
    4460:	f7dff06f          	j	43dc <__subdf3+0x108>
    4464:	00c766b3          	or	a3,a4,a2
    4468:	00d036b3          	snez	a3,a3
    446c:	ff1ff06f          	j	445c <__subdf3+0x188>
    4470:	0e080263          	beqz	a6,4554 <__subdf3+0x280>
    4474:	408885b3          	sub	a1,a7,s0
    4478:	02041e63          	bnez	s0,44b4 <__subdf3+0x1e0>
    447c:	00a7e6b3          	or	a3,a5,a0
    4480:	52068c63          	beqz	a3,49b8 <__subdf3+0x6e4>
    4484:	fff58693          	addi	a3,a1,-1
    4488:	00069c63          	bnez	a3,44a0 <__subdf3+0x1cc>
    448c:	00c50533          	add	a0,a0,a2
    4490:	00e78733          	add	a4,a5,a4
    4494:	00c53633          	sltu	a2,a0,a2
    4498:	00c707b3          	add	a5,a4,a2
    449c:	ee1ff06f          	j	437c <__subdf3+0xa8>
    44a0:	7ff00813          	li	a6,2047
    44a4:	03059263          	bne	a1,a6,44c8 <__subdf3+0x1f4>
    44a8:	00070793          	mv	a5,a4
    44ac:	00060513          	mv	a0,a2
    44b0:	eddff06f          	j	438c <__subdf3+0xb8>
    44b4:	7ff00693          	li	a3,2047
    44b8:	fed888e3          	beq	a7,a3,44a8 <__subdf3+0x1d4>
    44bc:	008006b7          	lui	a3,0x800
    44c0:	00d7e7b3          	or	a5,a5,a3
    44c4:	00058693          	mv	a3,a1
    44c8:	03800593          	li	a1,56
    44cc:	06d5ce63          	blt	a1,a3,4548 <__subdf3+0x274>
    44d0:	01f00593          	li	a1,31
    44d4:	04d5c063          	blt	a1,a3,4514 <__subdf3+0x240>
    44d8:	02000813          	li	a6,32
    44dc:	40d80833          	sub	a6,a6,a3
    44e0:	010795b3          	sll	a1,a5,a6
    44e4:	00d55333          	srl	t1,a0,a3
    44e8:	01051833          	sll	a6,a0,a6
    44ec:	0065e5b3          	or	a1,a1,t1
    44f0:	01003833          	snez	a6,a6
    44f4:	0105e5b3          	or	a1,a1,a6
    44f8:	00d7d6b3          	srl	a3,a5,a3
    44fc:	00c58533          	add	a0,a1,a2
    4500:	00e686b3          	add	a3,a3,a4
    4504:	00c53633          	sltu	a2,a0,a2
    4508:	00c687b3          	add	a5,a3,a2
    450c:	00088413          	mv	s0,a7
    4510:	ee1ff06f          	j	43f0 <__subdf3+0x11c>
    4514:	fe068593          	addi	a1,a3,-32 # 7fffe0 <_heap_start+0x7fa09c>
    4518:	02000313          	li	t1,32
    451c:	00b7d5b3          	srl	a1,a5,a1
    4520:	00000813          	li	a6,0
    4524:	00668863          	beq	a3,t1,4534 <__subdf3+0x260>
    4528:	04000813          	li	a6,64
    452c:	40d80833          	sub	a6,a6,a3
    4530:	01079833          	sll	a6,a5,a6
    4534:	00a86833          	or	a6,a6,a0
    4538:	01003833          	snez	a6,a6
    453c:	0105e5b3          	or	a1,a1,a6
    4540:	00000693          	li	a3,0
    4544:	fb9ff06f          	j	44fc <__subdf3+0x228>
    4548:	00a7e5b3          	or	a1,a5,a0
    454c:	00b035b3          	snez	a1,a1
    4550:	ff1ff06f          	j	4540 <__subdf3+0x26c>
    4554:	00140693          	addi	a3,s0,1
    4558:	7fe6f593          	andi	a1,a3,2046
    455c:	08059863          	bnez	a1,45ec <__subdf3+0x318>
    4560:	00a7e6b3          	or	a3,a5,a0
    4564:	06041463          	bnez	s0,45cc <__subdf3+0x2f8>
    4568:	46068063          	beqz	a3,49c8 <__subdf3+0x6f4>
    456c:	00c766b3          	or	a3,a4,a2
    4570:	02068a63          	beqz	a3,45a4 <__subdf3+0x2d0>
    4574:	00c50633          	add	a2,a0,a2
    4578:	00e78733          	add	a4,a5,a4
    457c:	00a637b3          	sltu	a5,a2,a0
    4580:	00f707b3          	add	a5,a4,a5
    4584:	00800737          	lui	a4,0x800
    4588:	00e7f733          	and	a4,a5,a4
    458c:	00060513          	mv	a0,a2
    4590:	00070a63          	beqz	a4,45a4 <__subdf3+0x2d0>
    4594:	ff800737          	lui	a4,0xff800
    4598:	fff70713          	addi	a4,a4,-1 # ff7fffff <_heap_start+0xff7fa0bb>
    459c:	00e7f7b3          	and	a5,a5,a4
    45a0:	00100413          	li	s0,1
    45a4:	00757713          	andi	a4,a0,7
    45a8:	42070c63          	beqz	a4,49e0 <__subdf3+0x70c>
    45ac:	00f57713          	andi	a4,a0,15
    45b0:	00400693          	li	a3,4
    45b4:	42d70663          	beq	a4,a3,49e0 <__subdf3+0x70c>
    45b8:	00450713          	addi	a4,a0,4
    45bc:	00a73533          	sltu	a0,a4,a0
    45c0:	00a787b3          	add	a5,a5,a0
    45c4:	00070513          	mv	a0,a4
    45c8:	4180006f          	j	49e0 <__subdf3+0x70c>
    45cc:	ec068ee3          	beqz	a3,44a8 <__subdf3+0x1d4>
    45d0:	00c76733          	or	a4,a4,a2
    45d4:	da070ce3          	beqz	a4,438c <__subdf3+0xb8>
    45d8:	00000493          	li	s1,0
    45dc:	004007b7          	lui	a5,0x400
    45e0:	00000513          	li	a0,0
    45e4:	7ff00413          	li	s0,2047
    45e8:	3f80006f          	j	49e0 <__subdf3+0x70c>
    45ec:	7ff00593          	li	a1,2047
    45f0:	3eb68263          	beq	a3,a1,49d4 <__subdf3+0x700>
    45f4:	00c50633          	add	a2,a0,a2
    45f8:	00a63533          	sltu	a0,a2,a0
    45fc:	00e78733          	add	a4,a5,a4
    4600:	00a70733          	add	a4,a4,a0
    4604:	01f71513          	slli	a0,a4,0x1f
    4608:	00165613          	srli	a2,a2,0x1
    460c:	00c56533          	or	a0,a0,a2
    4610:	00175793          	srli	a5,a4,0x1
    4614:	00068413          	mv	s0,a3
    4618:	f8dff06f          	j	45a4 <__subdf3+0x2d0>
    461c:	0f005c63          	blez	a6,4714 <__subdf3+0x440>
    4620:	08089e63          	bnez	a7,46bc <__subdf3+0x3e8>
    4624:	00c766b3          	or	a3,a4,a2
    4628:	44068863          	beqz	a3,4a78 <__subdf3+0x7a4>
    462c:	fff80593          	addi	a1,a6,-1
    4630:	02059063          	bnez	a1,4650 <__subdf3+0x37c>
    4634:	40c50633          	sub	a2,a0,a2
    4638:	40e78733          	sub	a4,a5,a4
    463c:	00c537b3          	sltu	a5,a0,a2
    4640:	40f707b3          	sub	a5,a4,a5
    4644:	00060513          	mv	a0,a2
    4648:	00100413          	li	s0,1
    464c:	0540006f          	j	46a0 <__subdf3+0x3cc>
    4650:	7ff00693          	li	a3,2047
    4654:	d2d80ce3          	beq	a6,a3,438c <__subdf3+0xb8>
    4658:	03800693          	li	a3,56
    465c:	0ab6c663          	blt	a3,a1,4708 <__subdf3+0x434>
    4660:	01f00693          	li	a3,31
    4664:	06b6c863          	blt	a3,a1,46d4 <__subdf3+0x400>
    4668:	02000813          	li	a6,32
    466c:	40b80833          	sub	a6,a6,a1
    4670:	010716b3          	sll	a3,a4,a6
    4674:	00b658b3          	srl	a7,a2,a1
    4678:	01061833          	sll	a6,a2,a6
    467c:	0116e6b3          	or	a3,a3,a7
    4680:	01003833          	snez	a6,a6
    4684:	0106e6b3          	or	a3,a3,a6
    4688:	00b755b3          	srl	a1,a4,a1
    468c:	40d506b3          	sub	a3,a0,a3
    4690:	40b785b3          	sub	a1,a5,a1
    4694:	00d537b3          	sltu	a5,a0,a3
    4698:	40f587b3          	sub	a5,a1,a5
    469c:	00068513          	mv	a0,a3
    46a0:	00800937          	lui	s2,0x800
    46a4:	0127f733          	and	a4,a5,s2
    46a8:	ee070ee3          	beqz	a4,45a4 <__subdf3+0x2d0>
    46ac:	fff90913          	addi	s2,s2,-1 # 7fffff <_heap_start+0x7fa0bb>
    46b0:	0127f933          	and	s2,a5,s2
    46b4:	00050993          	mv	s3,a0
    46b8:	2140006f          	j	48cc <__subdf3+0x5f8>
    46bc:	7ff00693          	li	a3,2047
    46c0:	eed402e3          	beq	s0,a3,45a4 <__subdf3+0x2d0>
    46c4:	008006b7          	lui	a3,0x800
    46c8:	00d76733          	or	a4,a4,a3
    46cc:	00080593          	mv	a1,a6
    46d0:	f89ff06f          	j	4658 <__subdf3+0x384>
    46d4:	fe058693          	addi	a3,a1,-32
    46d8:	02000893          	li	a7,32
    46dc:	00d756b3          	srl	a3,a4,a3
    46e0:	00000813          	li	a6,0
    46e4:	01158863          	beq	a1,a7,46f4 <__subdf3+0x420>
    46e8:	04000813          	li	a6,64
    46ec:	40b80833          	sub	a6,a6,a1
    46f0:	01071833          	sll	a6,a4,a6
    46f4:	00c86833          	or	a6,a6,a2
    46f8:	01003833          	snez	a6,a6
    46fc:	0106e6b3          	or	a3,a3,a6
    4700:	00000593          	li	a1,0
    4704:	f89ff06f          	j	468c <__subdf3+0x3b8>
    4708:	00c766b3          	or	a3,a4,a2
    470c:	00d036b3          	snez	a3,a3
    4710:	ff1ff06f          	j	4700 <__subdf3+0x42c>
    4714:	0e080863          	beqz	a6,4804 <__subdf3+0x530>
    4718:	40888833          	sub	a6,a7,s0
    471c:	04041263          	bnez	s0,4760 <__subdf3+0x48c>
    4720:	00a7e5b3          	or	a1,a5,a0
    4724:	34058e63          	beqz	a1,4a80 <__subdf3+0x7ac>
    4728:	fff80593          	addi	a1,a6,-1
    472c:	00059e63          	bnez	a1,4748 <__subdf3+0x474>
    4730:	40a60533          	sub	a0,a2,a0
    4734:	40f70733          	sub	a4,a4,a5
    4738:	00a63633          	sltu	a2,a2,a0
    473c:	40c707b3          	sub	a5,a4,a2
    4740:	00068493          	mv	s1,a3
    4744:	f05ff06f          	j	4648 <__subdf3+0x374>
    4748:	7ff00313          	li	t1,2047
    474c:	02681463          	bne	a6,t1,4774 <__subdf3+0x4a0>
    4750:	00070793          	mv	a5,a4
    4754:	00060513          	mv	a0,a2
    4758:	7ff00413          	li	s0,2047
    475c:	0d00006f          	j	482c <__subdf3+0x558>
    4760:	7ff00593          	li	a1,2047
    4764:	feb886e3          	beq	a7,a1,4750 <__subdf3+0x47c>
    4768:	008005b7          	lui	a1,0x800
    476c:	00b7e7b3          	or	a5,a5,a1
    4770:	00080593          	mv	a1,a6
    4774:	03800813          	li	a6,56
    4778:	08b84063          	blt	a6,a1,47f8 <__subdf3+0x524>
    477c:	01f00813          	li	a6,31
    4780:	04b84263          	blt	a6,a1,47c4 <__subdf3+0x4f0>
    4784:	02000313          	li	t1,32
    4788:	40b30333          	sub	t1,t1,a1
    478c:	00b55e33          	srl	t3,a0,a1
    4790:	00679833          	sll	a6,a5,t1
    4794:	00651333          	sll	t1,a0,t1
    4798:	01c86833          	or	a6,a6,t3
    479c:	00603333          	snez	t1,t1
    47a0:	00686533          	or	a0,a6,t1
    47a4:	00b7d5b3          	srl	a1,a5,a1
    47a8:	40a60533          	sub	a0,a2,a0
    47ac:	40b705b3          	sub	a1,a4,a1
    47b0:	00a63633          	sltu	a2,a2,a0
    47b4:	40c587b3          	sub	a5,a1,a2
    47b8:	00088413          	mv	s0,a7
    47bc:	00068493          	mv	s1,a3
    47c0:	ee1ff06f          	j	46a0 <__subdf3+0x3cc>
    47c4:	fe058813          	addi	a6,a1,-32 # 7fffe0 <_heap_start+0x7fa09c>
    47c8:	02000e13          	li	t3,32
    47cc:	0107d833          	srl	a6,a5,a6
    47d0:	00000313          	li	t1,0
    47d4:	01c58863          	beq	a1,t3,47e4 <__subdf3+0x510>
    47d8:	04000313          	li	t1,64
    47dc:	40b30333          	sub	t1,t1,a1
    47e0:	00679333          	sll	t1,a5,t1
    47e4:	00a36333          	or	t1,t1,a0
    47e8:	00603333          	snez	t1,t1
    47ec:	00686533          	or	a0,a6,t1
    47f0:	00000593          	li	a1,0
    47f4:	fb5ff06f          	j	47a8 <__subdf3+0x4d4>
    47f8:	00a7e533          	or	a0,a5,a0
    47fc:	00a03533          	snez	a0,a0
    4800:	ff1ff06f          	j	47f0 <__subdf3+0x51c>
    4804:	00140593          	addi	a1,s0,1
    4808:	7fe5f593          	andi	a1,a1,2046
    480c:	08059863          	bnez	a1,489c <__subdf3+0x5c8>
    4810:	00c765b3          	or	a1,a4,a2
    4814:	00a7e833          	or	a6,a5,a0
    4818:	06041263          	bnez	s0,487c <__subdf3+0x5a8>
    481c:	00081c63          	bnez	a6,4834 <__subdf3+0x560>
    4820:	26058863          	beqz	a1,4a90 <__subdf3+0x7bc>
    4824:	00070793          	mv	a5,a4
    4828:	00060513          	mv	a0,a2
    482c:	00068493          	mv	s1,a3
    4830:	d75ff06f          	j	45a4 <__subdf3+0x2d0>
    4834:	d60588e3          	beqz	a1,45a4 <__subdf3+0x2d0>
    4838:	40c50833          	sub	a6,a0,a2
    483c:	010538b3          	sltu	a7,a0,a6
    4840:	40e785b3          	sub	a1,a5,a4
    4844:	411585b3          	sub	a1,a1,a7
    4848:	008008b7          	lui	a7,0x800
    484c:	0115f8b3          	and	a7,a1,a7
    4850:	00088c63          	beqz	a7,4868 <__subdf3+0x594>
    4854:	40a60533          	sub	a0,a2,a0
    4858:	40f70733          	sub	a4,a4,a5
    485c:	00a63633          	sltu	a2,a2,a0
    4860:	40c707b3          	sub	a5,a4,a2
    4864:	fc9ff06f          	j	482c <__subdf3+0x558>
    4868:	00b86533          	or	a0,a6,a1
    486c:	22050a63          	beqz	a0,4aa0 <__subdf3+0x7cc>
    4870:	00058793          	mv	a5,a1
    4874:	00080513          	mv	a0,a6
    4878:	d2dff06f          	j	45a4 <__subdf3+0x2d0>
    487c:	00081c63          	bnez	a6,4894 <__subdf3+0x5c0>
    4880:	22058463          	beqz	a1,4aa8 <__subdf3+0x7d4>
    4884:	00070793          	mv	a5,a4
    4888:	00060513          	mv	a0,a2
    488c:	00068493          	mv	s1,a3
    4890:	afdff06f          	j	438c <__subdf3+0xb8>
    4894:	ae058ce3          	beqz	a1,438c <__subdf3+0xb8>
    4898:	d41ff06f          	j	45d8 <__subdf3+0x304>
    489c:	40c509b3          	sub	s3,a0,a2
    48a0:	013535b3          	sltu	a1,a0,s3
    48a4:	40e78933          	sub	s2,a5,a4
    48a8:	40b90933          	sub	s2,s2,a1
    48ac:	008005b7          	lui	a1,0x800
    48b0:	00b975b3          	and	a1,s2,a1
    48b4:	08058463          	beqz	a1,493c <__subdf3+0x668>
    48b8:	40a609b3          	sub	s3,a2,a0
    48bc:	40f70933          	sub	s2,a4,a5
    48c0:	01363633          	sltu	a2,a2,s3
    48c4:	40c90933          	sub	s2,s2,a2
    48c8:	00068493          	mv	s1,a3
    48cc:	08090263          	beqz	s2,4950 <__subdf3+0x67c>
    48d0:	00090513          	mv	a0,s2
    48d4:	4ec000ef          	jal	ra,4dc0 <__clzsi2>
    48d8:	ff850713          	addi	a4,a0,-8
    48dc:	01f00793          	li	a5,31
    48e0:	08e7c063          	blt	a5,a4,4960 <__subdf3+0x68c>
    48e4:	02000793          	li	a5,32
    48e8:	40e787b3          	sub	a5,a5,a4
    48ec:	00e91933          	sll	s2,s2,a4
    48f0:	00f9d7b3          	srl	a5,s3,a5
    48f4:	0127e7b3          	or	a5,a5,s2
    48f8:	00e99533          	sll	a0,s3,a4
    48fc:	0a874463          	blt	a4,s0,49a4 <__subdf3+0x6d0>
    4900:	40870733          	sub	a4,a4,s0
    4904:	00170613          	addi	a2,a4,1
    4908:	01f00693          	li	a3,31
    490c:	06c6c263          	blt	a3,a2,4970 <__subdf3+0x69c>
    4910:	02000713          	li	a4,32
    4914:	40c70733          	sub	a4,a4,a2
    4918:	00e796b3          	sll	a3,a5,a4
    491c:	00c555b3          	srl	a1,a0,a2
    4920:	00e51733          	sll	a4,a0,a4
    4924:	00b6e6b3          	or	a3,a3,a1
    4928:	00e03733          	snez	a4,a4
    492c:	00e6e533          	or	a0,a3,a4
    4930:	00c7d7b3          	srl	a5,a5,a2
    4934:	00000413          	li	s0,0
    4938:	c6dff06f          	j	45a4 <__subdf3+0x2d0>
    493c:	0129e533          	or	a0,s3,s2
    4940:	f80516e3          	bnez	a0,48cc <__subdf3+0x5f8>
    4944:	00000793          	li	a5,0
    4948:	00000413          	li	s0,0
    494c:	14c0006f          	j	4a98 <__subdf3+0x7c4>
    4950:	00098513          	mv	a0,s3
    4954:	46c000ef          	jal	ra,4dc0 <__clzsi2>
    4958:	02050513          	addi	a0,a0,32
    495c:	f7dff06f          	j	48d8 <__subdf3+0x604>
    4960:	fd850793          	addi	a5,a0,-40
    4964:	00f997b3          	sll	a5,s3,a5
    4968:	00000513          	li	a0,0
    496c:	f91ff06f          	j	48fc <__subdf3+0x628>
    4970:	fe170713          	addi	a4,a4,-31
    4974:	02000593          	li	a1,32
    4978:	00e7d733          	srl	a4,a5,a4
    497c:	00000693          	li	a3,0
    4980:	00b60863          	beq	a2,a1,4990 <__subdf3+0x6bc>
    4984:	04000693          	li	a3,64
    4988:	40c686b3          	sub	a3,a3,a2
    498c:	00d796b3          	sll	a3,a5,a3
    4990:	00d566b3          	or	a3,a0,a3
    4994:	00d036b3          	snez	a3,a3
    4998:	00d76533          	or	a0,a4,a3
    499c:	00000793          	li	a5,0
    49a0:	f95ff06f          	j	4934 <__subdf3+0x660>
    49a4:	40e40433          	sub	s0,s0,a4
    49a8:	ff800737          	lui	a4,0xff800
    49ac:	fff70713          	addi	a4,a4,-1 # ff7fffff <_heap_start+0xff7fa0bb>
    49b0:	00e7f7b3          	and	a5,a5,a4
    49b4:	bf1ff06f          	j	45a4 <__subdf3+0x2d0>
    49b8:	00070793          	mv	a5,a4
    49bc:	00060513          	mv	a0,a2
    49c0:	00058413          	mv	s0,a1
    49c4:	be1ff06f          	j	45a4 <__subdf3+0x2d0>
    49c8:	00070793          	mv	a5,a4
    49cc:	00060513          	mv	a0,a2
    49d0:	bd5ff06f          	j	45a4 <__subdf3+0x2d0>
    49d4:	7ff00413          	li	s0,2047
    49d8:	00000793          	li	a5,0
    49dc:	00000513          	li	a0,0
    49e0:	00800737          	lui	a4,0x800
    49e4:	00e7f733          	and	a4,a5,a4
    49e8:	00070e63          	beqz	a4,4a04 <__subdf3+0x730>
    49ec:	00140413          	addi	s0,s0,1
    49f0:	7ff00713          	li	a4,2047
    49f4:	0ce40263          	beq	s0,a4,4ab8 <__subdf3+0x7e4>
    49f8:	ff800737          	lui	a4,0xff800
    49fc:	fff70713          	addi	a4,a4,-1 # ff7fffff <_heap_start+0xff7fa0bb>
    4a00:	00e7f7b3          	and	a5,a5,a4
    4a04:	01d79693          	slli	a3,a5,0x1d
    4a08:	00355513          	srli	a0,a0,0x3
    4a0c:	7ff00713          	li	a4,2047
    4a10:	00a6e6b3          	or	a3,a3,a0
    4a14:	0037d793          	srli	a5,a5,0x3
    4a18:	00e41e63          	bne	s0,a4,4a34 <__subdf3+0x760>
    4a1c:	00f6e6b3          	or	a3,a3,a5
    4a20:	00000793          	li	a5,0
    4a24:	00068863          	beqz	a3,4a34 <__subdf3+0x760>
    4a28:	000807b7          	lui	a5,0x80
    4a2c:	00000693          	li	a3,0
    4a30:	00000493          	li	s1,0
    4a34:	01441713          	slli	a4,s0,0x14
    4a38:	7ff00637          	lui	a2,0x7ff00
    4a3c:	00c79793          	slli	a5,a5,0xc
    4a40:	01c12083          	lw	ra,28(sp)
    4a44:	01812403          	lw	s0,24(sp)
    4a48:	00c77733          	and	a4,a4,a2
    4a4c:	00c7d793          	srli	a5,a5,0xc
    4a50:	01f49493          	slli	s1,s1,0x1f
    4a54:	00f767b3          	or	a5,a4,a5
    4a58:	0097e733          	or	a4,a5,s1
    4a5c:	01012903          	lw	s2,16(sp)
    4a60:	01412483          	lw	s1,20(sp)
    4a64:	00c12983          	lw	s3,12(sp)
    4a68:	00068513          	mv	a0,a3
    4a6c:	00070593          	mv	a1,a4
    4a70:	02010113          	addi	sp,sp,32
    4a74:	00008067          	ret
    4a78:	00080413          	mv	s0,a6
    4a7c:	b29ff06f          	j	45a4 <__subdf3+0x2d0>
    4a80:	00070793          	mv	a5,a4
    4a84:	00060513          	mv	a0,a2
    4a88:	00080413          	mv	s0,a6
    4a8c:	da1ff06f          	j	482c <__subdf3+0x558>
    4a90:	00000793          	li	a5,0
    4a94:	00000513          	li	a0,0
    4a98:	00000493          	li	s1,0
    4a9c:	f45ff06f          	j	49e0 <__subdf3+0x70c>
    4aa0:	00000793          	li	a5,0
    4aa4:	ff5ff06f          	j	4a98 <__subdf3+0x7c4>
    4aa8:	00000513          	li	a0,0
    4aac:	00000493          	li	s1,0
    4ab0:	004007b7          	lui	a5,0x400
    4ab4:	b31ff06f          	j	45e4 <__subdf3+0x310>
    4ab8:	00000793          	li	a5,0
    4abc:	00000513          	li	a0,0
    4ac0:	f45ff06f          	j	4a04 <__subdf3+0x730>

00004ac4 <__fixdfsi>:
    4ac4:	0145d713          	srli	a4,a1,0x14
    4ac8:	001006b7          	lui	a3,0x100
    4acc:	fff68793          	addi	a5,a3,-1 # fffff <_heap_start+0xfa0bb>
    4ad0:	7ff77713          	andi	a4,a4,2047
    4ad4:	3fe00613          	li	a2,1022
    4ad8:	00b7f7b3          	and	a5,a5,a1
    4adc:	01f5d593          	srli	a1,a1,0x1f
    4ae0:	04e65e63          	bge	a2,a4,4b3c <__fixdfsi+0x78>
    4ae4:	41d00613          	li	a2,1053
    4ae8:	00e65a63          	bge	a2,a4,4afc <__fixdfsi+0x38>
    4aec:	80000537          	lui	a0,0x80000
    4af0:	fff54513          	not	a0,a0
    4af4:	00a58533          	add	a0,a1,a0
    4af8:	00008067          	ret
    4afc:	00d7e7b3          	or	a5,a5,a3
    4b00:	43300693          	li	a3,1075
    4b04:	40e686b3          	sub	a3,a3,a4
    4b08:	01f00613          	li	a2,31
    4b0c:	02d64063          	blt	a2,a3,4b2c <__fixdfsi+0x68>
    4b10:	bed70713          	addi	a4,a4,-1043
    4b14:	00e797b3          	sll	a5,a5,a4
    4b18:	00d55533          	srl	a0,a0,a3
    4b1c:	00a7e533          	or	a0,a5,a0
    4b20:	02058063          	beqz	a1,4b40 <__fixdfsi+0x7c>
    4b24:	40a00533          	neg	a0,a0
    4b28:	00008067          	ret
    4b2c:	41300693          	li	a3,1043
    4b30:	40e68733          	sub	a4,a3,a4
    4b34:	00e7d533          	srl	a0,a5,a4
    4b38:	fe9ff06f          	j	4b20 <__fixdfsi+0x5c>
    4b3c:	00000513          	li	a0,0
    4b40:	00008067          	ret

00004b44 <__fixunsdfsi>:
    4b44:	0145d713          	srli	a4,a1,0x14
    4b48:	00100637          	lui	a2,0x100
    4b4c:	00050693          	mv	a3,a0
    4b50:	fff60793          	addi	a5,a2,-1 # fffff <_heap_start+0xfa0bb>
    4b54:	7ff77713          	andi	a4,a4,2047
    4b58:	3fe00513          	li	a0,1022
    4b5c:	00b7f7b3          	and	a5,a5,a1
    4b60:	01f5d593          	srli	a1,a1,0x1f
    4b64:	04e55a63          	bge	a0,a4,4bb8 <__fixunsdfsi+0x74>
    4b68:	00000513          	li	a0,0
    4b6c:	00059863          	bnez	a1,4b7c <__fixunsdfsi+0x38>
    4b70:	41e00593          	li	a1,1054
    4b74:	fff00513          	li	a0,-1
    4b78:	00e5d463          	bge	a1,a4,4b80 <__fixunsdfsi+0x3c>
    4b7c:	00008067          	ret
    4b80:	00c7e7b3          	or	a5,a5,a2
    4b84:	43300613          	li	a2,1075
    4b88:	40e60633          	sub	a2,a2,a4
    4b8c:	01f00593          	li	a1,31
    4b90:	00c5cc63          	blt	a1,a2,4ba8 <__fixunsdfsi+0x64>
    4b94:	bed70713          	addi	a4,a4,-1043
    4b98:	00e797b3          	sll	a5,a5,a4
    4b9c:	00c6d533          	srl	a0,a3,a2
    4ba0:	00a7e533          	or	a0,a5,a0
    4ba4:	00008067          	ret
    4ba8:	41300693          	li	a3,1043
    4bac:	40e68733          	sub	a4,a3,a4
    4bb0:	00e7d533          	srl	a0,a5,a4
    4bb4:	00008067          	ret
    4bb8:	00000513          	li	a0,0
    4bbc:	00008067          	ret

00004bc0 <__floatsidf>:
    4bc0:	ff010113          	addi	sp,sp,-16
    4bc4:	00112623          	sw	ra,12(sp)
    4bc8:	00812423          	sw	s0,8(sp)
    4bcc:	00912223          	sw	s1,4(sp)
    4bd0:	08050663          	beqz	a0,4c5c <__floatsidf+0x9c>
    4bd4:	41f55793          	srai	a5,a0,0x1f
    4bd8:	00a7c433          	xor	s0,a5,a0
    4bdc:	40f40433          	sub	s0,s0,a5
    4be0:	01f55493          	srli	s1,a0,0x1f
    4be4:	00040513          	mv	a0,s0
    4be8:	1d8000ef          	jal	ra,4dc0 <__clzsi2>
    4bec:	41e00713          	li	a4,1054
    4bf0:	00a00793          	li	a5,10
    4bf4:	40a70733          	sub	a4,a4,a0
    4bf8:	04a7c863          	blt	a5,a0,4c48 <__floatsidf+0x88>
    4bfc:	00b00793          	li	a5,11
    4c00:	40a787b3          	sub	a5,a5,a0
    4c04:	01550513          	addi	a0,a0,21 # 80000015 <_heap_start+0x7fffa0d1>
    4c08:	00f457b3          	srl	a5,s0,a5
    4c0c:	00a41433          	sll	s0,s0,a0
    4c10:	00048513          	mv	a0,s1
    4c14:	00c79793          	slli	a5,a5,0xc
    4c18:	00c7d793          	srli	a5,a5,0xc
    4c1c:	01471713          	slli	a4,a4,0x14
    4c20:	01f51513          	slli	a0,a0,0x1f
    4c24:	00f76733          	or	a4,a4,a5
    4c28:	00c12083          	lw	ra,12(sp)
    4c2c:	00a767b3          	or	a5,a4,a0
    4c30:	00040513          	mv	a0,s0
    4c34:	00812403          	lw	s0,8(sp)
    4c38:	00412483          	lw	s1,4(sp)
    4c3c:	00078593          	mv	a1,a5
    4c40:	01010113          	addi	sp,sp,16
    4c44:	00008067          	ret
    4c48:	ff550513          	addi	a0,a0,-11
    4c4c:	00a417b3          	sll	a5,s0,a0
    4c50:	00048513          	mv	a0,s1
    4c54:	00000413          	li	s0,0
    4c58:	fbdff06f          	j	4c14 <__floatsidf+0x54>
    4c5c:	00000713          	li	a4,0
    4c60:	00000793          	li	a5,0
    4c64:	ff1ff06f          	j	4c54 <__floatsidf+0x94>

00004c68 <__floatunsidf>:
    4c68:	ff010113          	addi	sp,sp,-16
    4c6c:	00812423          	sw	s0,8(sp)
    4c70:	00112623          	sw	ra,12(sp)
    4c74:	00050413          	mv	s0,a0
    4c78:	06050263          	beqz	a0,4cdc <__floatunsidf+0x74>
    4c7c:	144000ef          	jal	ra,4dc0 <__clzsi2>
    4c80:	41e00713          	li	a4,1054
    4c84:	00a00793          	li	a5,10
    4c88:	40a70733          	sub	a4,a4,a0
    4c8c:	04a7c063          	blt	a5,a0,4ccc <__floatunsidf+0x64>
    4c90:	00b00793          	li	a5,11
    4c94:	40a787b3          	sub	a5,a5,a0
    4c98:	01550513          	addi	a0,a0,21
    4c9c:	00f457b3          	srl	a5,s0,a5
    4ca0:	00a41433          	sll	s0,s0,a0
    4ca4:	00c12083          	lw	ra,12(sp)
    4ca8:	00040513          	mv	a0,s0
    4cac:	00c79793          	slli	a5,a5,0xc
    4cb0:	00812403          	lw	s0,8(sp)
    4cb4:	01471713          	slli	a4,a4,0x14
    4cb8:	00c7d793          	srli	a5,a5,0xc
    4cbc:	00f766b3          	or	a3,a4,a5
    4cc0:	00068593          	mv	a1,a3
    4cc4:	01010113          	addi	sp,sp,16
    4cc8:	00008067          	ret
    4ccc:	ff550513          	addi	a0,a0,-11
    4cd0:	00a417b3          	sll	a5,s0,a0
    4cd4:	00000413          	li	s0,0
    4cd8:	fcdff06f          	j	4ca4 <__floatunsidf+0x3c>
    4cdc:	00000793          	li	a5,0
    4ce0:	00000713          	li	a4,0
    4ce4:	fc1ff06f          	j	4ca4 <__floatunsidf+0x3c>

00004ce8 <__mulsi3>:
    4ce8:	00050613          	mv	a2,a0
    4cec:	00000513          	li	a0,0
    4cf0:	0015f693          	andi	a3,a1,1
    4cf4:	00068463          	beqz	a3,4cfc <__mulsi3+0x14>
    4cf8:	00c50533          	add	a0,a0,a2
    4cfc:	0015d593          	srli	a1,a1,0x1
    4d00:	00161613          	slli	a2,a2,0x1
    4d04:	fe0596e3          	bnez	a1,4cf0 <__mulsi3+0x8>
    4d08:	00008067          	ret

00004d0c <__divsi3>:
    4d0c:	06054063          	bltz	a0,4d6c <__umodsi3+0x10>
    4d10:	0605c663          	bltz	a1,4d7c <__umodsi3+0x20>

00004d14 <__udivsi3>:
    4d14:	00058613          	mv	a2,a1
    4d18:	00050593          	mv	a1,a0
    4d1c:	fff00513          	li	a0,-1
    4d20:	02060c63          	beqz	a2,4d58 <__udivsi3+0x44>
    4d24:	00100693          	li	a3,1
    4d28:	00b67a63          	bgeu	a2,a1,4d3c <__udivsi3+0x28>
    4d2c:	00c05863          	blez	a2,4d3c <__udivsi3+0x28>
    4d30:	00161613          	slli	a2,a2,0x1
    4d34:	00169693          	slli	a3,a3,0x1
    4d38:	feb66ae3          	bltu	a2,a1,4d2c <__udivsi3+0x18>
    4d3c:	00000513          	li	a0,0
    4d40:	00c5e663          	bltu	a1,a2,4d4c <__udivsi3+0x38>
    4d44:	40c585b3          	sub	a1,a1,a2
    4d48:	00d56533          	or	a0,a0,a3
    4d4c:	0016d693          	srli	a3,a3,0x1
    4d50:	00165613          	srli	a2,a2,0x1
    4d54:	fe0696e3          	bnez	a3,4d40 <__udivsi3+0x2c>
    4d58:	00008067          	ret

00004d5c <__umodsi3>:
    4d5c:	00008293          	mv	t0,ra
    4d60:	fb5ff0ef          	jal	ra,4d14 <__udivsi3>
    4d64:	00058513          	mv	a0,a1
    4d68:	00028067          	jr	t0
    4d6c:	40a00533          	neg	a0,a0
    4d70:	00b04863          	bgtz	a1,4d80 <__umodsi3+0x24>
    4d74:	40b005b3          	neg	a1,a1
    4d78:	f9dff06f          	j	4d14 <__udivsi3>
    4d7c:	40b005b3          	neg	a1,a1
    4d80:	00008293          	mv	t0,ra
    4d84:	f91ff0ef          	jal	ra,4d14 <__udivsi3>
    4d88:	40a00533          	neg	a0,a0
    4d8c:	00028067          	jr	t0

00004d90 <__modsi3>:
    4d90:	00008293          	mv	t0,ra
    4d94:	0005ca63          	bltz	a1,4da8 <__modsi3+0x18>
    4d98:	00054c63          	bltz	a0,4db0 <__modsi3+0x20>
    4d9c:	f79ff0ef          	jal	ra,4d14 <__udivsi3>
    4da0:	00058513          	mv	a0,a1
    4da4:	00028067          	jr	t0
    4da8:	40b005b3          	neg	a1,a1
    4dac:	fe0558e3          	bgez	a0,4d9c <__modsi3+0xc>
    4db0:	40a00533          	neg	a0,a0
    4db4:	f61ff0ef          	jal	ra,4d14 <__udivsi3>
    4db8:	40b00533          	neg	a0,a1
    4dbc:	00028067          	jr	t0

00004dc0 <__clzsi2>:
    4dc0:	000107b7          	lui	a5,0x10
    4dc4:	02f57a63          	bgeu	a0,a5,4df8 <__clzsi2+0x38>
    4dc8:	10053793          	sltiu	a5,a0,256
    4dcc:	0017c793          	xori	a5,a5,1
    4dd0:	00379793          	slli	a5,a5,0x3
    4dd4:	00005737          	lui	a4,0x5
    4dd8:	02000693          	li	a3,32
    4ddc:	40f686b3          	sub	a3,a3,a5
    4de0:	00f55533          	srl	a0,a0,a5
    4de4:	f1c70793          	addi	a5,a4,-228 # 4f1c <__clz_tab>
    4de8:	00a787b3          	add	a5,a5,a0
    4dec:	0007c503          	lbu	a0,0(a5) # 10000 <_heap_start+0xa0bc>
    4df0:	40a68533          	sub	a0,a3,a0
    4df4:	00008067          	ret
    4df8:	01000737          	lui	a4,0x1000
    4dfc:	01000793          	li	a5,16
    4e00:	fce56ae3          	bltu	a0,a4,4dd4 <__clzsi2+0x14>
    4e04:	01800793          	li	a5,24
    4e08:	fcdff06f          	j	4dd4 <__clzsi2+0x14>

00004e0c <memcpy>:
    4e0c:	00050313          	mv	t1,a0
    4e10:	00060e63          	beqz	a2,4e2c <memcpy+0x20>
    4e14:	00058383          	lb	t2,0(a1) # 800000 <_heap_start+0x7fa0bc>
    4e18:	00730023          	sb	t2,0(t1)
    4e1c:	fff60613          	addi	a2,a2,-1
    4e20:	00130313          	addi	t1,t1,1
    4e24:	00158593          	addi	a1,a1,1
    4e28:	fe0616e3          	bnez	a2,4e14 <memcpy+0x8>
    4e2c:	00008067          	ret

00004e30 <strcmp>:
    4e30:	00054603          	lbu	a2,0(a0)
    4e34:	0005c683          	lbu	a3,0(a1)
    4e38:	00150513          	addi	a0,a0,1
    4e3c:	00158593          	addi	a1,a1,1
    4e40:	00d61463          	bne	a2,a3,4e48 <strcmp+0x18>
    4e44:	fe0616e3          	bnez	a2,4e30 <strcmp>
    4e48:	40d60533          	sub	a0,a2,a3
    4e4c:	00008067          	ret

Disassembly of section .memory:

00004e50 <pow10.0-0x40>:
    4e50:	1534                	addi	a3,sp,680
    4e52:	0000                	unimp
    4e54:	1210                	addi	a2,sp,288
    4e56:	0000                	unimp
    4e58:	1210                	addi	a2,sp,288
    4e5a:	0000                	unimp
    4e5c:	1210                	addi	a2,sp,288
    4e5e:	0000                	unimp
    4e60:	1210                	addi	a2,sp,288
    4e62:	0000                	unimp
    4e64:	1210                	addi	a2,sp,288
    4e66:	0000                	unimp
    4e68:	1210                	addi	a2,sp,288
    4e6a:	0000                	unimp
    4e6c:	1210                	addi	a2,sp,288
    4e6e:	0000                	unimp
    4e70:	1210                	addi	a2,sp,288
    4e72:	0000                	unimp
    4e74:	1210                	addi	a2,sp,288
    4e76:	0000                	unimp
    4e78:	1534                	addi	a3,sp,680
    4e7a:	0000                	unimp
    4e7c:	1794                	addi	a3,sp,992
    4e7e:	0000                	unimp
    4e80:	1534                	addi	a3,sp,680
    4e82:	0000                	unimp
    4e84:	1474                	addi	a3,sp,556
    4e86:	0000                	unimp
    4e88:	1758                	addi	a4,sp,932
    4e8a:	0000                	unimp
    4e8c:	1474                	addi	a3,sp,556
	...

00004e90 <pow10.0>:
    4e90:	0000 0000 0000 3ff0 0000 0000 0000 4024     .......?......$@
    4ea0:	0000 0000 0000 4059 0000 0000 4000 408f     ......Y@.....@.@
    4eb0:	0000 0000 8800 40c3 0000 0000 6a00 40f8     .......@.....j.@
    4ec0:	0000 0000 8480 412e 0000 0000 12d0 4163     .......A......cA
    4ed0:	0000 0000 d784 4197 0000 0000 cd65 41cd     .......A....e..A
    4ee0:	3898 0000 3978 0000 38a8 0000 3978 0000     .8..x9...8..x9..
    4ef0:	3984 0000 3978 0000 38a8 0000 3898 0000     .9..x9...8...8..
    4f00:	3898 0000 3984 0000 38a8 0000 3870 0000     .8...9...8..p8..
    4f10:	3870 0000 3870 0000 38b0 0000               p8..p8...8..

00004f1c <__clz_tab>:
    4f1c:	0100 0202 0303 0303 0404 0404 0404 0404     ................
    4f2c:	0505 0505 0505 0505 0505 0505 0505 0505     ................
    4f3c:	0606 0606 0606 0606 0606 0606 0606 0606     ................
    4f4c:	0606 0606 0606 0606 0606 0606 0606 0606     ................
    4f5c:	0707 0707 0707 0707 0707 0707 0707 0707     ................
    4f6c:	0707 0707 0707 0707 0707 0707 0707 0707     ................
    4f7c:	0707 0707 0707 0707 0707 0707 0707 0707     ................
    4f8c:	0707 0707 0707 0707 0707 0707 0707 0707     ................
    4f9c:	0808 0808 0808 0808 0808 0808 0808 0808     ................
    4fac:	0808 0808 0808 0808 0808 0808 0808 0808     ................
    4fbc:	0808 0808 0808 0808 0808 0808 0808 0808     ................
    4fcc:	0808 0808 0808 0808 0808 0808 0808 0808     ................
    4fdc:	0808 0808 0808 0808 0808 0808 0808 0808     ................
    4fec:	0808 0808 0808 0808 0808 0808 0808 0808     ................
    4ffc:	0808 0808 0808 0808 0808 0808 0808 0808     ................
    500c:	0808 0808 0808 0808 0808 0808 0808 0808     ................
    501c:	1941 0000 7200 7369 7663 0100 000f 0000     A....riscv......
    502c:	7205 3376 6932 7032 0030 0000 0a0a 480a     .rv32i2p0......H
    503c:	6c65 6f6c 7720 726f 646c 6620 6f72 206d     ello world from 
    504c:	4f49 2d62 6f53 2143 0a0a 000a 6156 756c     IOb-SoC!....Valu
    505c:	2065 666f 5020 2069 203d 6625 0a0a 0000     e of Pi = %f....
    506c:	6553 646e 6966 656c 742e 7478 0000 0000     Sendfile.txt....
    507c:	4146 4c49 5255 3a45 5320 6e65 2064 6e61     FAILURE: Send an
    508c:	2064 6572 6563 7669 6465 6620 6c69 2065     d received file 
    509c:	6964 6666 7265 0a21 0000 0000 5553 4343     differ!.....SUCC
    50ac:	5345 3a53 5320 6e65 2064 6e61 2064 6572     ESS: Send and re
    50bc:	6563 7669 6465 6620 6c69 2065 616d 6374     ceived file matc
    50cc:	2168 000a 6574 7473 6c2e 676f 0000 0000     h!..test.log....
    50dc:	450a 6578 7563 6974 6e6f 7420 6d69 3a65     .Execution time:
    50ec:	2520 2064 6c63 636f 206b 7963 6c63 7365      %d clock cycles
    50fc:	000a 0000 450a 6578 7563 6974 6e6f 7420     .....Execution t
    510c:	6d69 3a65 2520 7564 2073 2540 4d64 7a48     ime: %dus @%dMHz
    511c:	0a0a 0000 6554 7473 7020 7361 6573 2164     ....Test passed!
    512c:	0000 0000 6553 646e 6e69 2067 6874 7369     ....Sending this
    513c:	7320 7274 6e69 2067 7361 6120 6620 6c69      string as a fil
    514c:	2065 6f74 6320 6e6f 6f73 656c 0a2e 6854     e to console..Th
    515c:	2065 6966 656c 6920 2073 6874 6e65 7220     e file is then r
    516c:	7165 6575 7473 6465 6220 6361 206b 7266     equested back fr
    517c:	6d6f 6320 6e6f 6f73 656c 0a2e 6854 2065     om console..The 
    518c:	6573 746e 6620 6c69 2065 7369 6320 6d6f     sent file is com
    519c:	6170 6572 2064 6f74 7420 6568 7220 6365     pared to the rec
    51ac:	6965 6576 2064 6966 656c 7420 206f 6f63     eived file to co
    51bc:	666e 7269 206d 6f63 7272 6365 2074 6966     nfirm correct fi
    51cc:	656c 7420 6172 736e 6566 2072 6976 2061     le transfer via 
    51dc:	4155 5452 7520 6973 676e 6320 6e6f 6f73     UART using conso
    51ec:	656c 0a2e 6547 656e 6172 6974 676e 7420     le..Generating t
    51fc:	6568 6620 6c69 2065 6e69 7420 6568 6620     he file in the f
    520c:	7269 776d 7261 2065 7263 6165 6574 2073     irmware creates 
    521c:	6e61 7520 696e 6f66 6d72 6620 6c69 2065     an uniform file 
    522c:	7274 6e61 6673 7265 6220 7465 6577 6e65     transfer between
    523c:	7020 2d63 6d65 6c75 202c 6973 756d 616c      pc-emul, simula
    524c:	6974 6e6f 6120 646e 6620 6770 2061 6977     tion and fpga wi
    525c:	6874 756f 2074 6461 6964 676e 6520 7478     thout adding ext
    526c:	6172 7420 7261 6567 7374 6620 726f 6620     ra targets for f
    527c:	6c69 2065 6567 656e 6172 6974 6e6f 0a2e     ile generation..
    528c:	0000 0000                                   ....

00005290 <main>:
    5290:	fe010113          	addi	sp,sp,-32
    5294:	000055b7          	lui	a1,0x5
    5298:	00d00613          	li	a2,13
    529c:	12058593          	addi	a1,a1,288 # 5120 <__clz_tab+0x204>
    52a0:	00010513          	mv	a0,sp
    52a4:	00112e23          	sw	ra,28(sp)
    52a8:	00812c23          	sw	s0,24(sp)
    52ac:	00912a23          	sw	s1,20(sp)
    52b0:	01212823          	sw	s2,16(sp)
    52b4:	b59ff0ef          	jal	ra,4e0c <memcpy>
    52b8:	90000537          	lui	a0,0x90000
    52bc:	b51fc0ef          	jal	ra,1e0c <timer_init>
    52c0:	02100593          	li	a1,33
    52c4:	80000537          	lui	a0,0x80000
    52c8:	8cdfc0ef          	jal	ra,1b94 <uart_init>
    52cc:	00002537          	lui	a0,0x2
    52d0:	b3050513          	addi	a0,a0,-1232 # 1b30 <uart_putc>
    52d4:	ec0fc0ef          	jal	ra,1994 <printf_init>
    52d8:	00005537          	lui	a0,0x5
    52dc:	03850513          	addi	a0,a0,56 # 5038 <__clz_tab+0x11c>
    52e0:	919fc0ef          	jal	ra,1bf8 <uart_puts>
    52e4:	000057b7          	lui	a5,0x5
    52e8:	4047a683          	lw	a3,1028(a5) # 5404 <main+0x174>
    52ec:	4007a603          	lw	a2,1024(a5)
    52f0:	00005537          	lui	a0,0x5
    52f4:	05850513          	addi	a0,a0,88 # 5058 <__clz_tab+0x13c>
    52f8:	ea8fc0ef          	jal	ra,19a0 <printf_>
    52fc:	3e800513          	li	a0,1000
    5300:	588000ef          	jal	ra,5888 <malloc>
    5304:	000057b7          	lui	a5,0x5
    5308:	4087a583          	lw	a1,1032(a5) # 5408 <send_string>
    530c:	00050493          	mv	s1,a0
    5310:	00005937          	lui	s2,0x5
    5314:	0f5000ef          	jal	ra,5c08 <strcpy>
    5318:	129000ef          	jal	ra,5c40 <strlen>
    531c:	00050593          	mv	a1,a0
    5320:	00048613          	mv	a2,s1
    5324:	06c90513          	addi	a0,s2,108 # 506c <__clz_tab+0x150>
    5328:	a09fc0ef          	jal	ra,1d30 <uart_sendfile>
    532c:	00002537          	lui	a0,0x2
    5330:	71050513          	addi	a0,a0,1808 # 2710 <__umoddi3+0x1e8>
    5334:	554000ef          	jal	ra,5888 <malloc>
    5338:	00050593          	mv	a1,a0
    533c:	00050413          	mv	s0,a0
    5340:	06c90513          	addi	a0,s2,108
    5344:	91dfc0ef          	jal	ra,1c60 <uart_recvfile>
    5348:	00040593          	mv	a1,s0
    534c:	00048513          	mv	a0,s1
    5350:	ae1ff0ef          	jal	ra,4e30 <strcmp>
    5354:	0a050063          	beqz	a0,53f4 <main+0x164>
    5358:	00005537          	lui	a0,0x5
    535c:	07c50513          	addi	a0,a0,124 # 507c <__clz_tab+0x160>
    5360:	e40fc0ef          	jal	ra,19a0 <printf_>
    5364:	00048513          	mv	a0,s1
    5368:	530000ef          	jal	ra,5898 <free>
    536c:	00040513          	mv	a0,s0
    5370:	528000ef          	jal	ra,5898 <free>
    5374:	00010513          	mv	a0,sp
    5378:	0c9000ef          	jal	ra,5c40 <strlen>
    537c:	00050593          	mv	a1,a0
    5380:	00005537          	lui	a0,0x5
    5384:	00010613          	mv	a2,sp
    5388:	0d050513          	addi	a0,a0,208 # 50d0 <__clz_tab+0x1b4>
    538c:	9a5fc0ef          	jal	ra,1d30 <uart_sendfile>
    5390:	a9dfc0ef          	jal	ra,1e2c <timer_get_count>
    5394:	00050413          	mv	s0,a0
    5398:	00058493          	mv	s1,a1
    539c:	00050593          	mv	a1,a0
    53a0:	00005537          	lui	a0,0x5
    53a4:	0dc50513          	addi	a0,a0,220 # 50dc <__clz_tab+0x1c0>
    53a8:	df8fc0ef          	jal	ra,19a0 <printf_>
    53ac:	00000693          	li	a3,0
    53b0:	06400613          	li	a2,100
    53b4:	00040513          	mv	a0,s0
    53b8:	00048593          	mv	a1,s1
    53bc:	badfc0ef          	jal	ra,1f68 <__udivdi3>
    53c0:	00050593          	mv	a1,a0
    53c4:	00005537          	lui	a0,0x5
    53c8:	06400613          	li	a2,100
    53cc:	10050513          	addi	a0,a0,256 # 5100 <__clz_tab+0x1e4>
    53d0:	dd0fc0ef          	jal	ra,19a0 <printf_>
    53d4:	809fc0ef          	jal	ra,1bdc <uart_finish>
    53d8:	01c12083          	lw	ra,28(sp)
    53dc:	01812403          	lw	s0,24(sp)
    53e0:	01412483          	lw	s1,20(sp)
    53e4:	01012903          	lw	s2,16(sp)
    53e8:	00000513          	li	a0,0
    53ec:	02010113          	addi	sp,sp,32
    53f0:	00008067          	ret
    53f4:	00005537          	lui	a0,0x5
    53f8:	0a850513          	addi	a0,a0,168 # 50a8 <__clz_tab+0x18c>
    53fc:	f65ff06f          	j	5360 <main+0xd0>
    5400:	c083126f          	jal	tp,fff36808 <_heap_start+0xfff308c4>
    5404:	21ca                	fld	ft3,144(sp)
    5406:	4009                	c.li	zero,2

00005408 <send_string>:
    5408:	5130 0000 4347 3a43 2820 2967 3120 2e31     0Q..GCC: (g) 11.
    5418:	2e31 0030 1b41 0000 7200 7369 7663 0100     1.0.A....riscv..
    5428:	0011 0000 1004 7205 3376 6932 7032 0030     .......rv32i2p0.
    5438:	6e66 2b69 0000 0000 6e66 0069 616e 006e     fni+....fni.nan.
    5448:	6e66 2d69 0000 0000 ffff ffff ffff 7fef     fni-............
    5458:	ffff ffff ffff ffef 79fb 509f 4413 3fd3     .........y.P.D.?
    5468:	c8b3 8b60 8a28 3fc6 0000 0000 0000 3ff8     ..`.(..?.......?
    5478:	4361 636f 87a7 3fd2 a371 0979 934f 400a     aCoc...?q.y.O..@
    5488:	0000 0000 0000 3fe0 5516 bbb5 6bb1 4002     .......?.U...k.@
    5498:	39ef fefa 2e42 3fe6 0000 0000 0000 402c     .9..B..?......,@
    54a8:	0000 0000 0000 4024 0000 0000 0000 4018     ......$@.......@
    54b8:	0000 0000 0000 4000 0000 0000 0000 3ff0     .......@.......?
    54c8:	432d eb1c 36e2 3f1a 0000 0000 8480 412e     -C...6.?.......A
    54d8:	0000 0000 cd65 41cd 0000 0000 cd65 c1cd     ....e..A....e...

000054e8 <g_uart_putc_ptr>:
    54e8:	0000 0000 1b41 0000 7200 7369 7663 0100     ....A....riscv..
    54f8:	0011 0000 1004 7205 3376 6932 7032 0030     .......rv32i2p0.
    5508:	4f49 2d62 4155 5452 0000 0000 203a 6572     IOb-UART....: re
    5518:	7571 7365 6974 676e 7420 206f 6572 6563     questing to rece
    5528:	7669 2065 6966 656c 000a 0000 203a 6966     ive file....: fi
    5538:	656c 7220 6365 6965 6576 0a64 0000 0000     le received.....
    5548:	203a 6572 7571 7365 6974 676e 7420 206f     : requesting to 
    5558:	6573 646e 6620 6c69 0a65 0000 203a 6966     send file...: fi
    5568:	656c 7320 6e65 0a74 4100 001b 0000 6972     le sent..A....ri
    5578:	6373 0076 1101 0000 0400 0510 7672 3233     scv.........rv32
    5588:	3269 3070 4100 001b 0000 6972 6373 0076     i2p0.A....riscv.
    5598:	1101 0000 0400 0510 7672 3233 3269 3070     ........rv32i2p0
    55a8:	0000 0000                                   ....

000055ac <base>:
    55ac:	0000 0000 1b41 0000 7200 7369 7663 0100     ....A....riscv..
    55bc:	0011 0000 1004 7205 3376 6932 7032 0030     .......rv32i2p0.

000055cc <base>:
    55cc:	0000 0000 1b41 0000 7200 7369 7663 0100     ....A....riscv..
    55dc:	0011 0000 1004 7205 3376 6932 7032 0030     .......rv32i2p0.
    55ec:	0010 0000 0000 0000 7a03 0052 7c01 0101     .........zR..|..
    55fc:	0d1b 0002 0048 0000 0018 0000 c960 ffff     ....H.......`...
    560c:	05c0 0000 4400 300e 936c 8105 8801 8902     .....D.0l.......
    561c:	9203 9404 9506 9607 9708 9809 990a 030b     ................
    562c:	0254 c10a c844 c944 d344 d444 d544 d644     T...D.D.D.D.D.D.
    563c:	d744 d844 d944 d24c 0e44 4400 000b 0000     D.D.D.L.D..D....
    564c:	1b41 0000 7200 7369 7663 0100 0011 0000     A....riscv......
    565c:	1004 7205 3376 6932 7032 0030 0010 0000     ...rv32i2p0.....
    566c:	0000 0000 7a03 0052 7c01 0101 0d1b 0002     .....zR..|......
    567c:	004c 0000 0018 0000 cea4 ffff 04d0 0000     L...............
    568c:	4400 300e 8870 8902 8103 9201 9304 9405     .D.0p...........
    569c:	9506 9607 9708 9809 990a 9a0b 030c 010c     ................
    56ac:	c10a c844 c944 d244 d344 d444 d544 d644     ..D.D.D.D.D.D.D.
    56bc:	d744 d844 d944 da44 0e44 4400 000b 0000     D.D.D.D.D..D....
    56cc:	1b41 0000 7200 7369 7663 0100 0011 0000     A....riscv......
    56dc:	1004 7205 3376 6932 7032 0030 1b41 0000     ...rv32i2p0.A...
    56ec:	7200 7369 7663 0100 0011 0000 1004 7205     .riscv.........r
    56fc:	3376 6932 7032 0030 1b41 0000 7200 7369     v32i2p0.A....ris
    570c:	7663 0100 0011 0000 1004 7205 3376 6932     cv.........rv32i
    571c:	7032 0030 1b41 0000 7200 7369 7663 0100     2p0.A....riscv..
    572c:	0011 0000 1004 7205 3376 6932 7032 0030     .......rv32i2p0.
    573c:	1b41 0000 7200 7369 7663 0100 0011 0000     A....riscv......
    574c:	1004 7205 3376 6932 7032 0030 1b41 0000     ...rv32i2p0.A...
    575c:	7200 7369 7663 0100 0011 0000 1004 7205     .riscv.........r
    576c:	3376 6932 7032 0030 1b41 0000 7200 7369     v32i2p0.A....ris
    577c:	7663 0100 0011 0000 1004 7205 3376 6932     cv.........rv32i
    578c:	7032 0030 1b41 0000 7200 7369 7663 0100     2p0.A....riscv..
    579c:	0011 0000 1004 7205 3376 6932 7032 0030     .......rv32i2p0.
    57ac:	1b41 0000 7200 7369 7663 0100 0011 0000     A....riscv......
    57bc:	1004 7205 3376 6932 7032 0030 1b41 0000     ...rv32i2p0.A...
    57cc:	7200 7369 7663 0100 0011 0000 1004 7205     .riscv.........r
    57dc:	3376 6932 7032 0030 1b41 0000 7200 7369     v32i2p0.A....ris
    57ec:	7663 0100 0011 0000 1004 7205 3376 6932     cv.........rv32i
    57fc:	7032 0030 1b41 0000 7200 7369 7663 0100     2p0.A....riscv..
    580c:	0011 0000 1004 7205 3376 6932 7032 0030     .......rv32i2p0.
    581c:	1941 0000 7200 7369 7663 0100 000f 0000     A....riscv......
    582c:	7205 3376 6932 7032 0030 1941 0000 7200     .rv32i2p0.A....r
    583c:	7369 7663 0100 000f 0000 7205 3376 6932     iscv.......rv32i
    584c:	7032 0030 1b41 0000 7200 7369 7663 0100     2p0.A....riscv..
    585c:	0011 0000 1004 7205 3376 6932 7032 0030     .......rv32i2p0.
    586c:	1b41 0000 7200 7369 7663 0100 0011 0000     A....riscv......
    587c:	1004 7205 3376 6932 7032 0030               ...rv32i2p0.

00005888 <malloc>:
    5888:	000067b7          	lui	a5,0x6
    588c:	00050593          	mv	a1,a0
    5890:	cd87a503          	lw	a0,-808(a5) # 5cd8 <_impure_ptr>
    5894:	1740006f          	j	5a08 <_malloc_r>

00005898 <free>:
    5898:	000067b7          	lui	a5,0x6
    589c:	00050593          	mv	a1,a0
    58a0:	cd87a503          	lw	a0,-808(a5) # 5cd8 <_impure_ptr>
    58a4:	04c0006f          	j	58f0 <_free_r>
    58a8:	3a434347          	fmsub.d	ft6,ft6,ft4,ft7,rmm
    58ac:	2820                	fld	fs0,80(s0)
    58ae:	29554e47          	fmsub.s	ft8,fa0,fs5,ft5,rmm
    58b2:	3120                	fld	fs0,96(a0)
    58b4:	2e31                	jal	5bd0 <_sbrk_r+0x4c>
    58b6:	2e31                	jal	5bd2 <_sbrk_r+0x4e>
    58b8:	0030                	addi	a2,sp,8
    58ba:	1b41                	addi	s6,s6,-16
    58bc:	0000                	unimp
    58be:	7200                	flw	fs0,32(a2)
    58c0:	7369                	lui	t1,0xffffa
    58c2:	01007663          	bgeu	zero,a6,58ce <free+0x36>
    58c6:	0011                	c.nop	4
    58c8:	0000                	unimp
    58ca:	1004                	addi	s1,sp,32
    58cc:	7205                	lui	tp,0xfffe1
    58ce:	3376                	fld	ft6,376(sp)
    58d0:	6932                	flw	fs2,12(sp)
    58d2:	7032                	flw	ft0,44(sp)
    58d4:	0030                	addi	a2,sp,8
    58d6:	1941                	addi	s2,s2,-16
    58d8:	0000                	unimp
    58da:	7200                	flw	fs0,32(a2)
    58dc:	7369                	lui	t1,0xffffa
    58de:	01007663          	bgeu	zero,a6,58ea <free+0x52>
    58e2:	0000000f          	fence	unknown,unknown
    58e6:	7205                	lui	tp,0xfffe1
    58e8:	3376                	fld	ft6,376(sp)
    58ea:	6932                	flw	fs2,12(sp)
    58ec:	7032                	flw	ft0,44(sp)
    58ee:	0030                	addi	a2,sp,8

000058f0 <_free_r>:
    58f0:	0e058c63          	beqz	a1,59e8 <_free_r+0xf8>
    58f4:	ffc5a783          	lw	a5,-4(a1)
    58f8:	fe010113          	addi	sp,sp,-32
    58fc:	00812c23          	sw	s0,24(sp)
    5900:	00112e23          	sw	ra,28(sp)
    5904:	ffc58413          	addi	s0,a1,-4
    5908:	0007d463          	bgez	a5,5910 <_free_r+0x20>
    590c:	00f40433          	add	s0,s0,a5
    5910:	00a12623          	sw	a0,12(sp)
    5914:	3e8000ef          	jal	ra,5cfc <__malloc_lock>
    5918:	00006737          	lui	a4,0x6
    591c:	b6072783          	lw	a5,-1184(a4) # 5b60 <__malloc_free_list>
    5920:	00c12503          	lw	a0,12(sp)
    5924:	00079e63          	bnez	a5,5940 <_free_r+0x50>
    5928:	00042223          	sw	zero,4(s0)
    592c:	b6872023          	sw	s0,-1184(a4)
    5930:	01812403          	lw	s0,24(sp)
    5934:	01c12083          	lw	ra,28(sp)
    5938:	02010113          	addi	sp,sp,32
    593c:	3c40006f          	j	5d00 <__malloc_unlock>
    5940:	02f47463          	bgeu	s0,a5,5968 <_free_r+0x78>
    5944:	00042603          	lw	a2,0(s0)
    5948:	00c406b3          	add	a3,s0,a2
    594c:	00d79a63          	bne	a5,a3,5960 <_free_r+0x70>
    5950:	0007a683          	lw	a3,0(a5)
    5954:	0047a783          	lw	a5,4(a5)
    5958:	00c686b3          	add	a3,a3,a2
    595c:	00d42023          	sw	a3,0(s0)
    5960:	00f42223          	sw	a5,4(s0)
    5964:	fc9ff06f          	j	592c <_free_r+0x3c>
    5968:	00078713          	mv	a4,a5
    596c:	0047a783          	lw	a5,4(a5)
    5970:	00078463          	beqz	a5,5978 <_free_r+0x88>
    5974:	fef47ae3          	bgeu	s0,a5,5968 <_free_r+0x78>
    5978:	00072683          	lw	a3,0(a4)
    597c:	00d70633          	add	a2,a4,a3
    5980:	02861863          	bne	a2,s0,59b0 <_free_r+0xc0>
    5984:	00042603          	lw	a2,0(s0)
    5988:	00c686b3          	add	a3,a3,a2
    598c:	00d72023          	sw	a3,0(a4)
    5990:	00d70633          	add	a2,a4,a3
    5994:	f8c79ee3          	bne	a5,a2,5930 <_free_r+0x40>
    5998:	0007a603          	lw	a2,0(a5)
    599c:	0047a783          	lw	a5,4(a5)
    59a0:	00d606b3          	add	a3,a2,a3
    59a4:	00d72023          	sw	a3,0(a4)
    59a8:	00f72223          	sw	a5,4(a4)
    59ac:	f85ff06f          	j	5930 <_free_r+0x40>
    59b0:	00c47863          	bgeu	s0,a2,59c0 <_free_r+0xd0>
    59b4:	00c00793          	li	a5,12
    59b8:	00f52023          	sw	a5,0(a0)
    59bc:	f75ff06f          	j	5930 <_free_r+0x40>
    59c0:	00042603          	lw	a2,0(s0)
    59c4:	00c406b3          	add	a3,s0,a2
    59c8:	00d79a63          	bne	a5,a3,59dc <_free_r+0xec>
    59cc:	0007a683          	lw	a3,0(a5)
    59d0:	0047a783          	lw	a5,4(a5)
    59d4:	00c686b3          	add	a3,a3,a2
    59d8:	00d42023          	sw	a3,0(s0)
    59dc:	00f42223          	sw	a5,4(s0)
    59e0:	00872223          	sw	s0,4(a4)
    59e4:	f4dff06f          	j	5930 <_free_r+0x40>
    59e8:	00008067          	ret
    59ec:	1b41                	addi	s6,s6,-16
    59ee:	0000                	unimp
    59f0:	7200                	flw	fs0,32(a2)
    59f2:	7369                	lui	t1,0xffffa
    59f4:	01007663          	bgeu	zero,a6,5a00 <_free_r+0x110>
    59f8:	0011                	c.nop	4
    59fa:	0000                	unimp
    59fc:	1004                	addi	s1,sp,32
    59fe:	7205                	lui	tp,0xfffe1
    5a00:	3376                	fld	ft6,376(sp)
    5a02:	6932                	flw	fs2,12(sp)
    5a04:	7032                	flw	ft0,44(sp)
    5a06:	0030                	addi	a2,sp,8

00005a08 <_malloc_r>:
    5a08:	fe010113          	addi	sp,sp,-32
    5a0c:	00912a23          	sw	s1,20(sp)
    5a10:	00358493          	addi	s1,a1,3
    5a14:	ffc4f493          	andi	s1,s1,-4
    5a18:	01212823          	sw	s2,16(sp)
    5a1c:	00112e23          	sw	ra,28(sp)
    5a20:	00812c23          	sw	s0,24(sp)
    5a24:	01312623          	sw	s3,12(sp)
    5a28:	00848493          	addi	s1,s1,8
    5a2c:	00c00793          	li	a5,12
    5a30:	00050913          	mv	s2,a0
    5a34:	06f4f863          	bgeu	s1,a5,5aa4 <_malloc_r+0x9c>
    5a38:	00c00493          	li	s1,12
    5a3c:	06b4e663          	bltu	s1,a1,5aa8 <_malloc_r+0xa0>
    5a40:	00090513          	mv	a0,s2
    5a44:	2b8000ef          	jal	ra,5cfc <__malloc_lock>
    5a48:	000067b7          	lui	a5,0x6
    5a4c:	b607a703          	lw	a4,-1184(a5) # 5b60 <__malloc_free_list>
    5a50:	b6078693          	addi	a3,a5,-1184
    5a54:	00070413          	mv	s0,a4
    5a58:	06041c63          	bnez	s0,5ad0 <_malloc_r+0xc8>
    5a5c:	00006437          	lui	s0,0x6
    5a60:	b6440413          	addi	s0,s0,-1180 # 5b64 <__malloc_sbrk_start>
    5a64:	00042783          	lw	a5,0(s0)
    5a68:	00079a63          	bnez	a5,5a7c <_malloc_r+0x74>
    5a6c:	00000593          	li	a1,0
    5a70:	00090513          	mv	a0,s2
    5a74:	110000ef          	jal	ra,5b84 <_sbrk_r>
    5a78:	00a42023          	sw	a0,0(s0)
    5a7c:	00048593          	mv	a1,s1
    5a80:	00090513          	mv	a0,s2
    5a84:	100000ef          	jal	ra,5b84 <_sbrk_r>
    5a88:	fff00993          	li	s3,-1
    5a8c:	0b351a63          	bne	a0,s3,5b40 <_malloc_r+0x138>
    5a90:	00c00793          	li	a5,12
    5a94:	00f92023          	sw	a5,0(s2)
    5a98:	00090513          	mv	a0,s2
    5a9c:	264000ef          	jal	ra,5d00 <__malloc_unlock>
    5aa0:	0100006f          	j	5ab0 <_malloc_r+0xa8>
    5aa4:	f804dce3          	bgez	s1,5a3c <_malloc_r+0x34>
    5aa8:	00c00793          	li	a5,12
    5aac:	00f92023          	sw	a5,0(s2)
    5ab0:	00000513          	li	a0,0
    5ab4:	01c12083          	lw	ra,28(sp)
    5ab8:	01812403          	lw	s0,24(sp)
    5abc:	01412483          	lw	s1,20(sp)
    5ac0:	01012903          	lw	s2,16(sp)
    5ac4:	00c12983          	lw	s3,12(sp)
    5ac8:	02010113          	addi	sp,sp,32
    5acc:	00008067          	ret
    5ad0:	00042783          	lw	a5,0(s0)
    5ad4:	409787b3          	sub	a5,a5,s1
    5ad8:	0407ce63          	bltz	a5,5b34 <_malloc_r+0x12c>
    5adc:	00b00613          	li	a2,11
    5ae0:	00f67a63          	bgeu	a2,a5,5af4 <_malloc_r+0xec>
    5ae4:	00f42023          	sw	a5,0(s0)
    5ae8:	00f40433          	add	s0,s0,a5
    5aec:	00942023          	sw	s1,0(s0)
    5af0:	0100006f          	j	5b00 <_malloc_r+0xf8>
    5af4:	00442783          	lw	a5,4(s0)
    5af8:	02871a63          	bne	a4,s0,5b2c <_malloc_r+0x124>
    5afc:	00f6a023          	sw	a5,0(a3)
    5b00:	00090513          	mv	a0,s2
    5b04:	1fc000ef          	jal	ra,5d00 <__malloc_unlock>
    5b08:	00b40513          	addi	a0,s0,11
    5b0c:	00440793          	addi	a5,s0,4
    5b10:	ff857513          	andi	a0,a0,-8
    5b14:	40f50733          	sub	a4,a0,a5
    5b18:	f8f50ee3          	beq	a0,a5,5ab4 <_malloc_r+0xac>
    5b1c:	00e40433          	add	s0,s0,a4
    5b20:	40a787b3          	sub	a5,a5,a0
    5b24:	00f42023          	sw	a5,0(s0)
    5b28:	f8dff06f          	j	5ab4 <_malloc_r+0xac>
    5b2c:	00f72223          	sw	a5,4(a4)
    5b30:	fd1ff06f          	j	5b00 <_malloc_r+0xf8>
    5b34:	00040713          	mv	a4,s0
    5b38:	00442403          	lw	s0,4(s0)
    5b3c:	f1dff06f          	j	5a58 <_malloc_r+0x50>
    5b40:	00350413          	addi	s0,a0,3
    5b44:	ffc47413          	andi	s0,s0,-4
    5b48:	fa8502e3          	beq	a0,s0,5aec <_malloc_r+0xe4>
    5b4c:	40a405b3          	sub	a1,s0,a0
    5b50:	00090513          	mv	a0,s2
    5b54:	030000ef          	jal	ra,5b84 <_sbrk_r>
    5b58:	f9351ae3          	bne	a0,s3,5aec <_malloc_r+0xe4>
    5b5c:	f35ff06f          	j	5a90 <_malloc_r+0x88>

00005b60 <__malloc_free_list>:
    5b60:	00000000                                ....

00005b64 <__malloc_sbrk_start>:
    5b64:	00000000 00001b41 73697200 01007663     ....A....riscv..
    5b74:	00000011 72051004 69323376 00307032     .......rv32i2p0.

00005b84 <_sbrk_r>:
    5b84:	ff010113          	addi	sp,sp,-16
    5b88:	00812423          	sw	s0,8(sp)
    5b8c:	00912223          	sw	s1,4(sp)
    5b90:	00050413          	mv	s0,a0
    5b94:	000064b7          	lui	s1,0x6
    5b98:	00058513          	mv	a0,a1
    5b9c:	00112623          	sw	ra,12(sp)
    5ba0:	ec04a623          	sw	zero,-308(s1) # 5ecc <errno>
    5ba4:	348000ef          	jal	ra,5eec <_sbrk>
    5ba8:	fff00793          	li	a5,-1
    5bac:	00f51863          	bne	a0,a5,5bbc <_sbrk_r+0x38>
    5bb0:	ecc4a783          	lw	a5,-308(s1)
    5bb4:	00078463          	beqz	a5,5bbc <_sbrk_r+0x38>
    5bb8:	00f42023          	sw	a5,0(s0)
    5bbc:	00c12083          	lw	ra,12(sp)
    5bc0:	00812403          	lw	s0,8(sp)
    5bc4:	00412483          	lw	s1,4(sp)
    5bc8:	01010113          	addi	sp,sp,16
    5bcc:	00008067          	ret
    5bd0:	1b41                	addi	s6,s6,-16
    5bd2:	0000                	unimp
    5bd4:	7200                	flw	fs0,32(a2)
    5bd6:	7369                	lui	t1,0xffffa
    5bd8:	01007663          	bgeu	zero,a6,5be4 <_sbrk_r+0x60>
    5bdc:	0011                	c.nop	4
    5bde:	0000                	unimp
    5be0:	1004                	addi	s1,sp,32
    5be2:	7205                	lui	tp,0xfffe1
    5be4:	3376                	fld	ft6,376(sp)
    5be6:	6932                	flw	fs2,12(sp)
    5be8:	7032                	flw	ft0,44(sp)
    5bea:	0030                	addi	a2,sp,8
    5bec:	1941                	addi	s2,s2,-16
    5bee:	0000                	unimp
    5bf0:	7200                	flw	fs0,32(a2)
    5bf2:	7369                	lui	t1,0xffffa
    5bf4:	01007663          	bgeu	zero,a6,5c00 <_sbrk_r+0x7c>
    5bf8:	0000000f          	fence	unknown,unknown
    5bfc:	7205                	lui	tp,0xfffe1
    5bfe:	3376                	fld	ft6,376(sp)
    5c00:	6932                	flw	fs2,12(sp)
    5c02:	7032                	flw	ft0,44(sp)
    5c04:	0030                	addi	a2,sp,8
	...

00005c08 <strcpy>:
    5c08:	00050793          	mv	a5,a0
    5c0c:	0005c703          	lbu	a4,0(a1)
    5c10:	00178793          	addi	a5,a5,1
    5c14:	00158593          	addi	a1,a1,1
    5c18:	fee78fa3          	sb	a4,-1(a5)
    5c1c:	fe0718e3          	bnez	a4,5c0c <strcpy+0x4>
    5c20:	00008067          	ret
    5c24:	1b41                	addi	s6,s6,-16
    5c26:	0000                	unimp
    5c28:	7200                	flw	fs0,32(a2)
    5c2a:	7369                	lui	t1,0xffffa
    5c2c:	01007663          	bgeu	zero,a6,5c38 <strcpy+0x30>
    5c30:	0011                	c.nop	4
    5c32:	0000                	unimp
    5c34:	1004                	addi	s1,sp,32
    5c36:	7205                	lui	tp,0xfffe1
    5c38:	3376                	fld	ft6,376(sp)
    5c3a:	6932                	flw	fs2,12(sp)
    5c3c:	7032                	flw	ft0,44(sp)
    5c3e:	0030                	addi	a2,sp,8

00005c40 <strlen>:
    5c40:	00050793          	mv	a5,a0
    5c44:	0007c703          	lbu	a4,0(a5)
    5c48:	00178793          	addi	a5,a5,1
    5c4c:	fe071ce3          	bnez	a4,5c44 <strlen+0x4>
    5c50:	40a78533          	sub	a0,a5,a0
    5c54:	fff50513          	addi	a0,a0,-1
    5c58:	00008067          	ret
    5c5c:	1b41                	addi	s6,s6,-16
    5c5e:	0000                	unimp
    5c60:	7200                	flw	fs0,32(a2)
    5c62:	7369                	lui	t1,0xffffa
    5c64:	01007663          	bgeu	zero,a6,5c70 <strlen+0x30>
    5c68:	0011                	c.nop	4
    5c6a:	0000                	unimp
    5c6c:	1004                	addi	s1,sp,32
    5c6e:	7205                	lui	tp,0xfffe1
    5c70:	3376                	fld	ft6,376(sp)
    5c72:	6932                	flw	fs2,12(sp)
    5c74:	7032                	flw	ft0,44(sp)
    5c76:	0030                	addi	a2,sp,8

00005c78 <impure_data>:
	...

00005cd8 <_impure_ptr>:
    5cd8:	5c78 0000                                   x\..

00005cdc <_global_impure_ptr>:
    5cdc:	5c78 0000 1b41 0000 7200 7369 7663 0100     x\..A....riscv..
    5cec:	0011 0000 1004 7205 3376 6932 7032 0030     .......rv32i2p0.

00005cfc <__malloc_lock>:
    5cfc:	00008067          	ret

00005d00 <__malloc_unlock>:
    5d00:	00008067          	ret
    5d04:	1b41                	addi	s6,s6,-16
    5d06:	0000                	unimp
    5d08:	7200                	flw	fs0,32(a2)
    5d0a:	7369                	lui	t1,0xffffa
    5d0c:	01007663          	bgeu	zero,a6,5d18 <__malloc_unlock+0x18>
    5d10:	0011                	c.nop	4
    5d12:	0000                	unimp
    5d14:	1004                	addi	s1,sp,32
    5d16:	7205                	lui	tp,0xfffe1
    5d18:	3376                	fld	ft6,376(sp)
    5d1a:	6932                	flw	fs2,12(sp)
    5d1c:	7032                	flw	ft0,44(sp)
    5d1e:	0030                	addi	a2,sp,8

00005d20 <cleanup_glue>:
    5d20:	ff010113          	addi	sp,sp,-16
    5d24:	00812423          	sw	s0,8(sp)
    5d28:	00058413          	mv	s0,a1
    5d2c:	0005a583          	lw	a1,0(a1)
    5d30:	00912223          	sw	s1,4(sp)
    5d34:	00112623          	sw	ra,12(sp)
    5d38:	00050493          	mv	s1,a0
    5d3c:	00058463          	beqz	a1,5d44 <cleanup_glue+0x24>
    5d40:	fe1ff0ef          	jal	ra,5d20 <cleanup_glue>
    5d44:	00040593          	mv	a1,s0
    5d48:	00812403          	lw	s0,8(sp)
    5d4c:	00c12083          	lw	ra,12(sp)
    5d50:	00048513          	mv	a0,s1
    5d54:	00412483          	lw	s1,4(sp)
    5d58:	01010113          	addi	sp,sp,16
    5d5c:	b95ff06f          	j	58f0 <_free_r>

00005d60 <_reclaim_reent>:
    5d60:	000067b7          	lui	a5,0x6
    5d64:	cd87a783          	lw	a5,-808(a5) # 5cd8 <_impure_ptr>
    5d68:	16a78063          	beq	a5,a0,5ec8 <_reclaim_reent+0x168>
    5d6c:	02452783          	lw	a5,36(a0)
    5d70:	fe010113          	addi	sp,sp,-32
    5d74:	00812c23          	sw	s0,24(sp)
    5d78:	00112e23          	sw	ra,28(sp)
    5d7c:	00912a23          	sw	s1,20(sp)
    5d80:	01212823          	sw	s2,16(sp)
    5d84:	01312623          	sw	s3,12(sp)
    5d88:	00050413          	mv	s0,a0
    5d8c:	02078463          	beqz	a5,5db4 <_reclaim_reent+0x54>
    5d90:	00c7a783          	lw	a5,12(a5)
    5d94:	00000493          	li	s1,0
    5d98:	08000913          	li	s2,128
    5d9c:	0e079263          	bnez	a5,5e80 <_reclaim_reent+0x120>
    5da0:	02442783          	lw	a5,36(s0)
    5da4:	0007a583          	lw	a1,0(a5)
    5da8:	00058663          	beqz	a1,5db4 <_reclaim_reent+0x54>
    5dac:	00040513          	mv	a0,s0
    5db0:	b41ff0ef          	jal	ra,58f0 <_free_r>
    5db4:	01442583          	lw	a1,20(s0)
    5db8:	00058663          	beqz	a1,5dc4 <_reclaim_reent+0x64>
    5dbc:	00040513          	mv	a0,s0
    5dc0:	b31ff0ef          	jal	ra,58f0 <_free_r>
    5dc4:	02442583          	lw	a1,36(s0)
    5dc8:	00058663          	beqz	a1,5dd4 <_reclaim_reent+0x74>
    5dcc:	00040513          	mv	a0,s0
    5dd0:	b21ff0ef          	jal	ra,58f0 <_free_r>
    5dd4:	03842583          	lw	a1,56(s0)
    5dd8:	00058663          	beqz	a1,5de4 <_reclaim_reent+0x84>
    5ddc:	00040513          	mv	a0,s0
    5de0:	b11ff0ef          	jal	ra,58f0 <_free_r>
    5de4:	03c42583          	lw	a1,60(s0)
    5de8:	00058663          	beqz	a1,5df4 <_reclaim_reent+0x94>
    5dec:	00040513          	mv	a0,s0
    5df0:	b01ff0ef          	jal	ra,58f0 <_free_r>
    5df4:	04042583          	lw	a1,64(s0)
    5df8:	00058663          	beqz	a1,5e04 <_reclaim_reent+0xa4>
    5dfc:	00040513          	mv	a0,s0
    5e00:	af1ff0ef          	jal	ra,58f0 <_free_r>
    5e04:	05c42583          	lw	a1,92(s0)
    5e08:	00058663          	beqz	a1,5e14 <_reclaim_reent+0xb4>
    5e0c:	00040513          	mv	a0,s0
    5e10:	ae1ff0ef          	jal	ra,58f0 <_free_r>
    5e14:	05842583          	lw	a1,88(s0)
    5e18:	00058663          	beqz	a1,5e24 <_reclaim_reent+0xc4>
    5e1c:	00040513          	mv	a0,s0
    5e20:	ad1ff0ef          	jal	ra,58f0 <_free_r>
    5e24:	03442583          	lw	a1,52(s0)
    5e28:	00058663          	beqz	a1,5e34 <_reclaim_reent+0xd4>
    5e2c:	00040513          	mv	a0,s0
    5e30:	ac1ff0ef          	jal	ra,58f0 <_free_r>
    5e34:	01842783          	lw	a5,24(s0)
    5e38:	06078a63          	beqz	a5,5eac <_reclaim_reent+0x14c>
    5e3c:	02842783          	lw	a5,40(s0)
    5e40:	00040513          	mv	a0,s0
    5e44:	000780e7          	jalr	a5
    5e48:	04842583          	lw	a1,72(s0)
    5e4c:	06058063          	beqz	a1,5eac <_reclaim_reent+0x14c>
    5e50:	00040513          	mv	a0,s0
    5e54:	01812403          	lw	s0,24(sp)
    5e58:	01c12083          	lw	ra,28(sp)
    5e5c:	01412483          	lw	s1,20(sp)
    5e60:	01012903          	lw	s2,16(sp)
    5e64:	00c12983          	lw	s3,12(sp)
    5e68:	02010113          	addi	sp,sp,32
    5e6c:	eb5ff06f          	j	5d20 <cleanup_glue>
    5e70:	009585b3          	add	a1,a1,s1
    5e74:	0005a583          	lw	a1,0(a1)
    5e78:	02059063          	bnez	a1,5e98 <_reclaim_reent+0x138>
    5e7c:	00448493          	addi	s1,s1,4
    5e80:	02442783          	lw	a5,36(s0)
    5e84:	00c7a583          	lw	a1,12(a5)
    5e88:	ff2494e3          	bne	s1,s2,5e70 <_reclaim_reent+0x110>
    5e8c:	00040513          	mv	a0,s0
    5e90:	a61ff0ef          	jal	ra,58f0 <_free_r>
    5e94:	f0dff06f          	j	5da0 <_reclaim_reent+0x40>
    5e98:	0005a983          	lw	s3,0(a1)
    5e9c:	00040513          	mv	a0,s0
    5ea0:	a51ff0ef          	jal	ra,58f0 <_free_r>
    5ea4:	00098593          	mv	a1,s3
    5ea8:	fd1ff06f          	j	5e78 <_reclaim_reent+0x118>
    5eac:	01c12083          	lw	ra,28(sp)
    5eb0:	01812403          	lw	s0,24(sp)
    5eb4:	01412483          	lw	s1,20(sp)
    5eb8:	01012903          	lw	s2,16(sp)
    5ebc:	00c12983          	lw	s3,12(sp)
    5ec0:	02010113          	addi	sp,sp,32
    5ec4:	00008067          	ret
    5ec8:	00008067          	ret

00005ecc <errno>:
    5ecc:	00000000 00001b41 73697200 01007663     ....A....riscv..
    5edc:	00000011 72051004 69323376 00307032     .......rv32i2p0.

00005eec <_sbrk>:
    5eec:	000067b7          	lui	a5,0x6
    5ef0:	f2478793          	addi	a5,a5,-220 # 5f24 <heap_end.0>
    5ef4:	0007a703          	lw	a4,0(a5)
    5ef8:	00070a63          	beqz	a4,5f0c <_sbrk+0x20>
    5efc:	00a70533          	add	a0,a4,a0
    5f00:	00a7a023          	sw	a0,0(a5)
    5f04:	00070513          	mv	a0,a4
    5f08:	00008067          	ret
    5f0c:	00006737          	lui	a4,0x6
    5f10:	f4470713          	addi	a4,a4,-188 # 5f44 <_heap_start>
    5f14:	00a70533          	add	a0,a4,a0
    5f18:	00a7a023          	sw	a0,0(a5)
    5f1c:	00070513          	mv	a0,a4
    5f20:	00008067          	ret

00005f24 <heap_end.0>:
    5f24:	00000000 00001b41 73697200 01007663     ....A....riscv..
    5f34:	00000011 72051004 69323376 00307032     .......rv32i2p0.
